000000000000039c r __abi_tag
0000000000021470 T atexit
00000000000341e0 B __bss_start
00000000000341e8 b completed.0
                 U __cxa_allocate_exception@CXXABI_1.3
                 U __cxa_atexit@GLIBC_2.2.5
                 U __cxa_begin_catch@CXXABI_1.3
                 U __cxa_end_catch@CXXABI_1.3
                 w __cxa_finalize@GLIBC_2.2.5
                 U __cxa_guard_abort@CXXABI_1.3
                 U __cxa_guard_acquire@CXXABI_1.3
                 U __cxa_guard_release@CXXABI_1.3
                 w __cxa_pure_virtual@CXXABI_1.3
                 U __cxa_throw_bad_array_new_length@CXXABI_1.3.8
                 U __cxa_throw@CXXABI_1.3
0000000000034018 D __data_start
0000000000034018 W data_start
0000000000008f40 t deregister_tm_clones
0000000000008fb0 t __do_global_dtors_aux
0000000000031f28 d __do_global_dtors_aux_fini_array_entry
0000000000034020 D __dso_handle
0000000000034028 V DW.ref.__gxx_personality_v0
00000000000340f0 V DW.ref._ZTI23CppUTestFailedException
0000000000033cf8 d _DYNAMIC
00000000000341e0 D _edata
0000000000034f90 B _end
                 U __errno_location@GLIBC_2.2.5
                 U _exit@GLIBC_2.2.5
                 U fabs@GLIBC_2.2.5
                 U fclose@GLIBC_2.2.5
                 U fflush@GLIBC_2.2.5
0000000000021484 T _fini
                 U fopen@GLIBC_2.2.5
                 U fork@GLIBC_2.2.5
                 U fputs@GLIBC_2.2.5
0000000000009000 t frame_dummy
0000000000031f20 d __frame_dummy_init_array_entry
000000000002f47c r __FRAME_END__
                 U free@GLIBC_2.2.5
0000000000034150 D GetPlatformSpecificTimeInMillis
0000000000034148 D GetPlatformSpecificTimeString
                 U gettimeofday@GLIBC_2.2.5
0000000000034000 d _GLOBAL_OFFSET_TABLE_
                 w __gmon_start__
00000000000244c0 r __GNU_EH_FRAME_HDR
                 U __gxx_personality_v0@CXXABI_1.3
00000000000190a0 t helperDoRunOneTestInCurrentProcess
00000000000190c0 t helperDoRunOneTestSeperateProcess
0000000000019080 t helperDoTestBody
0000000000019070 t helperDoTestSetup
0000000000019090 t helperDoTestTeardown
0000000000007000 t _init
0000000000031f28 d __init_array_end
0000000000031f20 d __init_array_start
0000000000022000 R _IO_stdin_used
000000000001d030 t IsInfImplementation
000000000001d020 t IsNanImplementation
                 w _ITM_deregisterTMCloneTable
                 w _ITM_registerTMCloneTable
                 U kill@GLIBC_2.2.5
0000000000021460 T __libc_csu_fini
00000000000213f0 T __libc_csu_init
                 U __libc_start_main@GLIBC_2.2.5
                 U localtime@GLIBC_2.2.5
                 U __longjmp_chk@GLIBC_2.11
0000000000009009 T main
                 U malloc@GLIBC_2.2.5
                 U memcpy@GLIBC_2.14
                 U memset@GLIBC_2.2.5
0000000000034188 D PlatformSpecificAtExit
00000000000341a0 D PlatformSpecificFabs
0000000000034130 D PlatformSpecificFClose
000000000001d220 t PlatformSpecificFCloseImplementation
0000000000034128 D PlatformSpecificFlush
000000000001d230 t PlatformSpecificFlushImplementation
0000000000034140 D PlatformSpecificFOpen
000000000001d200 t PlatformSpecificFOpenImplementation
0000000000034178 D PlatformSpecificFork
0000000000034138 D PlatformSpecificFPuts
000000000001d210 t PlatformSpecificFPutsImplementation
00000000000341b8 D PlatformSpecificFree
0000000000034118 D PlatformSpecificIsInf
0000000000034120 D PlatformSpecificIsNan
0000000000034168 D PlatformSpecificLongJmp
000000000001d070 t PlatformSpecificLongJmpImplementation
00000000000341c8 D PlatformSpecificMalloc
00000000000341b0 D PlatformSpecificMemCpy
00000000000341a8 D PlatformSpecificMemset
0000000000034110 D PlatformSpecificMutexCreate
00000000000340f8 D PlatformSpecificMutexDestroy
0000000000034108 D PlatformSpecificMutexLock
0000000000034100 D PlatformSpecificMutexUnlock
00000000000341d0 D PlatformSpecificPutchar
0000000000034190 D PlatformSpecificRand
00000000000341c0 D PlatformSpecificRealloc
0000000000034158 D PlatformSpecificRestoreJumpBuffer
000000000001d010 t PlatformSpecificRestoreJumpBufferImplementation
0000000000034180 D PlatformSpecificRunTestInASeperateProcess
0000000000034160 D PlatformSpecificSetJmp
000000000001d0b0 t PlatformSpecificSetJmpImplementation
0000000000034198 D PlatformSpecificSrand
00000000000341d8 D PlatformSpecificVSNprintf
0000000000034170 D PlatformSpecificWaitPid
000000000001d250 t PThreadMutexCreate
000000000001d2b0 t PThreadMutexDestroy
                 U pthread_mutex_destroy@GLIBC_2.2.5
                 U pthread_mutex_init@GLIBC_2.2.5
000000000001d290 t PThreadMutexLock
                 U pthread_mutex_lock@GLIBC_2.2.5
000000000001d2a0 t PThreadMutexUnlock
                 U pthread_mutex_unlock@GLIBC_2.2.5
                 U putchar@GLIBC_2.2.5
                 U rand@GLIBC_2.2.5
                 U realloc@GLIBC_2.2.5
0000000000008f70 t register_tm_clones
                 U _setjmp@GLIBC_2.2.5
                 U srand@GLIBC_2.2.5
                 U __stack_chk_fail@GLIBC_2.4
0000000000008f10 T _start
00000000000341e0 B stdout@GLIBC_2.2.5
                 U strftime@GLIBC_2.2.5
                 U time@GLIBC_2.2.5
000000000001d120 t TimeInMillisImplementation
000000000001d190 t TimeStringImplementation
00000000000341e0 D __TMC_END__
                 U _Unwind_Resume@GCC_3.0
                 U vsnprintf@GLIBC_2.2.5
                 U waitpid@GLIBC_2.2.5
000000000000efb0 T _Z10StringFromb
000000000000fb50 T _Z10StringFromc
000000000000fa70 T _Z10StringFromdi
000000000000ebe0 T _Z10StringFromDn
000000000000f010 T _Z10StringFromi
000000000000fba0 T _Z10StringFromj
000000000000f060 T _Z10StringFroml
000000000000fbf0 T _Z10StringFromm
000000000000f8c0 T _Z10StringFromPFvvE
0000000000007860 t _Z10StringFromPFvvE.cold
000000000000e910 T _Z10StringFromPKc
000000000000f740 T _Z10StringFromPKv
000000000000783c t _Z10StringFromPKv.cold
00000000000213a0 T _Z10StringFromRK10TestFilter
000000000000ec10 T _Z10StringFromRK12SimpleString
000000000000ec40 T _Z10StringFromRKNSt7__cxx1112basic_stringIcSt11char_traitsIcESaIcEEE
000000000000f530 T _Z10StringFromx
000000000000f580 T _Z10StringFromy
0000000000017e00 T _Z13CppUTestStorePPv
000000000000829c t _Z13CppUTestStorePPv.cold
00000000000196a0 T _Z13doubles_equalddd
000000000000f250 T _Z13HexStringFroma
00000000000077dc t _Z13HexStringFroma.cold
000000000000f180 T _Z13HexStringFromi
000000000000f460 T _Z13HexStringFromj
000000000000f0b0 T _Z13HexStringFroml
000000000000f390 T _Z13HexStringFromm
000000000000f870 T _Z13HexStringFromPFvvE
000000000000f6f0 T _Z13HexStringFromPKv
000000000000f5d0 T _Z13HexStringFromx
000000000000f6a0 T _Z13HexStringFromy
000000000000fc40 T _Z16StringFromBinaryPKhm
0000000000007895 t _Z16StringFromBinaryPKhm.cold
000000000000ee80 T _Z16StringFromFormatPKcz
00000000000077a1 t _Z16StringFromFormatPKcz.cold
000000000000e990 T _Z16StringFromOrNullPKc
000000000000ecc0 T _Z17VStringFromFormatPKcP13__va_list_tag
000000000000777e t _Z17VStringFromFormatPKcP13__va_list_tag.cold
0000000000014ca0 T _Z19defaultNewAllocatorv
000000000000ff40 T _Z20StringFromMaskedBitsmmm
00000000000078d1 t _Z20StringFromMaskedBitsmmm.cold
0000000000015020 T _Z22defaultMallocAllocatorv
0000000000014d60 T _Z22getCurrentNewAllocatorv
0000000000014bd0 T _Z22setCurrentNewAllocatorP19TestMemoryAllocator
000000000000fd60 T _Z22StringFromBinaryOrNullPKhm
0000000000010060 T _Z23StringFromOrdinalNumberj
0000000000014e60 T _Z24defaultNewArrayAllocatorv
000000000000fdd0 T _Z24StringFromBinaryWithSizePKhm
00000000000078b8 t _Z24StringFromBinaryWithSizePKhm.cold
00000000000150e0 T _Z25getCurrentMallocAllocatorv
0000000000014f50 T _Z25setCurrentMallocAllocatorP19TestMemoryAllocator
000000000000e9e0 T _Z26BracketsFormattedHexString12SimpleString
000000000000774b t _Z26BracketsFormattedHexString12SimpleString.cold
000000000000c810 T _Z26crash_on_allocation_numberj
000000000000764a t _Z26crash_on_allocation_numberj.cold
0000000000014f20 T _Z27getCurrentNewArrayAllocatorv
0000000000014d90 T _Z27setCurrentNewArrayAllocatorP19TestMemoryAllocator
000000000000f320 T _Z30BracketsFormattedHexStringFroma
00000000000077f8 t _Z30BracketsFormattedHexStringFroma.cold
000000000000f1d0 T _Z30BracketsFormattedHexStringFromi
00000000000077cb t _Z30BracketsFormattedHexStringFromi.cold
000000000000f4b0 T _Z30BracketsFormattedHexStringFromj
000000000000781a t _Z30BracketsFormattedHexStringFromj.cold
000000000000f100 T _Z30BracketsFormattedHexStringFroml
00000000000077ba t _Z30BracketsFormattedHexStringFroml.cold
000000000000f3e0 T _Z30BracketsFormattedHexStringFromm
0000000000007809 t _Z30BracketsFormattedHexStringFromm.cold
000000000000f620 T _Z30BracketsFormattedHexStringFromx
000000000000782b t _Z30BracketsFormattedHexStringFromx.cold
000000000000f9f0 T _Z30BracketsFormattedHexStringFromy
0000000000007884 t _Z30BracketsFormattedHexStringFromy.cold
000000000000fed0 T _Z30StringFromBinaryWithSizeOrNullPKhm
0000000000014be0 T _Z31setCurrentNewAllocatorToDefaultv
0000000000014f60 T _Z34setCurrentMallocAllocatorToDefaultv
0000000000014da0 T _Z36setCurrentNewArrayAllocatorToDefaultv
000000000001d2d0 T _Z37PlatformSpecificGetWorkingEnvironmentv
000000000000b400 T _Z42cpputest_free_location_with_leak_detectionPvPKcm
000000000000b3e0 T _Z44cpputest_malloc_location_with_leak_detectionmPKcm
000000000000b3f0 T _Z45cpputest_realloc_location_with_leak_detectionPvmPKcm
000000000000b480 T _ZdaPv
000000000000b4a0 T _ZdaPvm
000000000000b490 T _ZdaPvPKcm
000000000000b4e0 T _ZdaPvRKSt9nothrow_t
000000000000b430 T _ZdlPv
000000000000b450 T _ZdlPvm
000000000000b440 T _ZdlPvPKcm
000000000000b4c0 T _ZdlPvRKSt9nothrow_t
000000000000e040 T _ZeqRK12SimpleStringS1_
0000000000034328 b _ZGVZ19defaultNewAllocatorvE9allocator
00000000000342a8 b _ZGVZ22defaultMallocAllocatorvE9allocator
00000000000342e8 b _ZGVZ24defaultNewArrayAllocatorvE9allocator
0000000000034218 b _ZGVZ26crash_on_allocation_numberjE14crashAllocator
0000000000034608 b _ZGVZN12TestRegistry18getCurrentRegistryEvE8registry
0000000000034380 b _ZGVZN14NullTestPlugin8instanceEvE9_instance
0000000000034260 b _ZGVZN20NullUnknownAllocator16defaultAllocatorEvE9allocator
0000000000034670 b _ZGVZN22OutsideTestRunnerUTest8instanceEvE9instance_
00000000000340d8 d _ZL11malloc_fptr
000000000000b250 t _ZL11normal_freePvPKcm
00000000000340c8 d _ZL12realloc_fptr
0000000000034248 b _ZL12save_counter
0000000000014410 t _ZL13checkedMallocm
00000000000080d0 t _ZL13checkedMallocm.cold
00000000000347b0 b _ZL13jmp_buf_index
000000000000ba50 t _ZL13mem_leak_freePvPKcm
000000000000b230 t _ZL13normal_mallocmPKcm
0000000000034208 b _ZL14globalDetector
0000000000034210 b _ZL14globalReporter
000000000000b240 t _ZL14normal_reallocPvmPKcm
000000000000b9b0 t _ZL15mem_leak_mallocmPKcm
00000000000340b8 d _ZL15saved_free_fptr
000000000000ba00 t _ZL16mem_leak_reallocPvmPKcm
00000000000340a8 d _ZL17operator_new_fptr
00000000000345e0 b _ZL17pointerTableIndex
00000000000340c0 d _ZL17saved_malloc_fptr
00000000000347c0 b _ZL17test_exit_jmp_buf
00000000000195e0 t _ZL18defaultCrashMethodv
00000000000340b0 d _ZL18saved_realloc_fptr
0000000000034378 b _ZL19currentNewAllocator
000000000000b340 t _ZL19normal_operator_newm
00000000000074b8 t _ZL19normal_operator_newm.cold
0000000000007484 t _ZL19normal_operator_newm.part.0
0000000000034078 d _ZL20operator_delete_fptr
000000000000bab0 t _ZL21mem_leak_operator_newm
00000000000074da t _ZL21mem_leak_operator_newm.cold
0000000000007484 t _ZL21mem_leak_operator_newm.part.0
00000000000340e8 d _ZL21pleaseCrashMeRightNow
0000000000034368 b _ZL22currentMallocAllocator
000000000000b280 t _ZL22normal_operator_deletePv
0000000000034090 d _ZL23operator_new_array_fptr
0000000000034098 d _ZL23operator_new_debug_fptr
0000000000034068 d _ZL23saved_operator_new_fptr
0000000000034370 b _ZL24currentNewArrayAllocator
000000000000bb50 t _ZL24mem_leak_operator_deletePv
000000000000c190 t _ZL24threadsafe_mem_leak_freePvPKcm
0000000000007557 t _ZL24threadsafe_mem_leak_freePvPKcm.cold
000000000000b3c0 t _ZL25normal_operator_new_arraym
00000000000074c2 t _ZL25normal_operator_new_arraym.cold
000000000000b320 t _ZL25normal_operator_new_debugmPKcm
00000000000074b3 t _ZL25normal_operator_new_debugmPKcm.cold
0000000000007484 t _ZL25normal_operator_new_debugmPKcm.part.0
00000000000340a0 d _ZL25operator_new_nothrow_fptr
0000000000034070 d _ZL26operator_delete_array_fptr
0000000000034038 d _ZL26saved_operator_delete_fptr
000000000000c020 t _ZL26threadsafe_mem_leak_mallocmPKcm
0000000000007533 t _ZL26threadsafe_mem_leak_mallocmPKcm.cold
000000000000bba0 t _ZL27mem_leak_operator_new_arraym
00000000000074e4 t _ZL27mem_leak_operator_new_arraym.cold
0000000000007484 t _ZL27mem_leak_operator_new_arraym.part.0
000000000000baf0 t _ZL27mem_leak_operator_new_debugmPKcm
00000000000074df t _ZL27mem_leak_operator_new_debugmPKcm.cold
0000000000007484 t _ZL27mem_leak_operator_new_debugmPKcm.part.0
000000000000b260 t _ZL27normal_operator_new_nothrowm
000000000000c0d0 t _ZL27threadsafe_mem_leak_reallocPvmPKcm
0000000000007545 t _ZL27threadsafe_mem_leak_reallocPvmPKcm.cold
000000000000b360 t _ZL28normal_operator_delete_arrayPv
000000000000bc90 t _ZL29mem_leak_operator_new_nothrowm
0000000000034080 d _ZL29operator_new_array_debug_fptr
0000000000034050 d _ZL29saved_operator_new_array_fptr
0000000000034058 d _ZL29saved_operator_new_debug_fptr
000000000000bc40 t _ZL30mem_leak_operator_delete_arrayPv
000000000000b3a0 t _ZL31normal_operator_new_array_debugmPKcm
00000000000074bd t _ZL31normal_operator_new_array_debugmPKcm.cold
0000000000007484 t _ZL31normal_operator_new_array_debugmPKcm.part.0
0000000000034088 d _ZL31operator_new_array_nothrow_fptr
0000000000034060 d _ZL31saved_operator_new_nothrow_fptr
0000000000034030 d _ZL32saved_operator_delete_array_fptr
000000000000c250 t _ZL32threadsafe_mem_leak_operator_newm
0000000000007569 t _ZL32threadsafe_mem_leak_operator_newm.cold
000000000000bbe0 t _ZL33mem_leak_operator_new_array_debugmPKcm
00000000000074e9 t _ZL33mem_leak_operator_new_array_debugmPKcm.cold
0000000000007484 t _ZL33mem_leak_operator_new_array_debugmPKcm.part.0
000000000000b380 t _ZL33normal_operator_new_array_nothrowm
000000000001d050 t _ZL34PlatformSpecificForkImplementationv
000000000000bcd0 t _ZL35mem_leak_operator_new_array_nothrowm
0000000000034040 d _ZL35saved_operator_new_array_debug_fptr
000000000000bee0 t _ZL35threadsafe_mem_leak_operator_deletePv
000000000001d060 t _ZL37PlatformSpecificWaitPidImplementationiPii
0000000000034048 d _ZL37saved_operator_new_array_nothrow_fptr
000000000000c2f0 t _ZL38threadsafe_mem_leak_operator_new_arraym
00000000000075ae t _ZL38threadsafe_mem_leak_operator_new_arraym.cold
000000000000bd10 t _ZL38threadsafe_mem_leak_operator_new_debugmPKcm
00000000000074ee t _ZL38threadsafe_mem_leak_operator_new_debugmPKcm.cold
000000000000be50 t _ZL40threadsafe_mem_leak_operator_new_nothrowm
000000000000bf80 t _ZL41threadsafe_mem_leak_operator_delete_arrayPv
000000000001d2e0 t _ZL44GccPlatformSpecificRunTestInASeperateProcessP10UtestShellP10TestPluginP10TestResult
00000000000089f6 t _ZL44GccPlatformSpecificRunTestInASeperateProcessP10UtestShellP10TestPluginP10TestResult.cold
000000000000c390 t _ZL44threadsafe_mem_leak_operator_new_array_debugmPKcm
00000000000075f3 t _ZL44threadsafe_mem_leak_operator_new_array_debugmPKcm.cold
000000000000bdc0 t _ZL46threadsafe_mem_leak_operator_new_array_nothrowm
00000000000343e0 b _ZL7setlist
00000000000340d0 d _ZL9free_fptr
0000000000017550 T _ZlsR10TestOutputl
0000000000017530 T _ZlsR10TestOutputPKc
0000000000021220 T _ZN10TestFilter14invertMatchingEv
0000000000021210 T _ZN10TestFilter14strictMatchingEv
00000000000211f0 T _ZN10TestFilter3addEPS_
0000000000021150 T _ZN10TestFilterC1EPKc
0000000000021100 T _ZN10TestFilterC1ERK12SimpleString
00000000000210d0 T _ZN10TestFilterC1Ev
0000000000021150 T _ZN10TestFilterC2EPKc
0000000000008ed6 t _ZN10TestFilterC2EPKc.cold
0000000000021100 T _ZN10TestFilterC2ERK12SimpleString
0000000000008ec4 t _ZN10TestFilterC2ERK12SimpleString.cold
00000000000210d0 T _ZN10TestFilterC2Ev
0000000000017020 T _ZN10TestOutput11printDoubleEd
00000000000081fa t _ZN10TestOutput11printDoubleEd.cold
00000000000178d0 T _ZN10TestOutput12printFailureERK11TestFailure
000000000000828a t _ZN10TestOutput12printFailureERK11TestFailure.cold
00000000000170f0 T _ZN10TestOutput12printTestRunEmm
0000000000017200 T _ZN10TestOutput15printTestsEndedERK10TestResult
0000000000017170 T _ZN10TestOutput16printVeryVerboseEPKc
0000000000016710 T _ZN10TestOutput17printTestsStartedEv
0000000000017570 T _ZN10TestOutput18printFailureInTestE12SimpleString
00000000000175b0 T _ZN10TestOutput19printFailureMessageE12SimpleString
00000000000340e0 D _ZN10TestOutput19workingEnvironment_E
0000000000016700 T _ZN10TestOutput20setProgressIndicatorEPKc
00000000000174c0 T _ZN10TestOutput21getWorkingEnvironmentEv
0000000000017190 T _ZN10TestOutput21printCurrentTestEndedERK10TestResult
00000000000174b0 T _ZN10TestOutput21setWorkingEnvironmentENS_18WorkingEnvironmentE
0000000000016720 T _ZN10TestOutput22printCurrentGroupEndedERK10TestResult
00000000000170a0 T _ZN10TestOutput22printProgressIndicatorEv
0000000000016e70 T _ZN10TestOutput23printCurrentTestStartedERK10UtestShell
00000000000081d6 t _ZN10TestOutput23printCurrentTestStartedERK10UtestShell.cold
0000000000016720 T _ZN10TestOutput24printCurrentGroupStartedERK10UtestShell
0000000000017800 T _ZN10TestOutput26printFileAndLineForFailureERK11TestFailure
0000000000008266 t _ZN10TestOutput26printFileAndLineForFailureERK11TestFailure.cold
0000000000016cd0 T _ZN10TestOutput29printEclipseErrorInFileOnLineE12SimpleStringm
00000000000176f0 T _ZN10TestOutput33printFileAndLineForTestAndFailureERK11TestFailure
0000000000008230 t _ZN10TestOutput33printFileAndLineForTestAndFailureERK11TestFailure.cold
0000000000016d60 T _ZN10TestOutput34printVisualStudioErrorInFileOnLineE12SimpleStringm
0000000000017610 T _ZN10TestOutput52printErrorInFileOnLineFormattedForWorkingEnvironmentE12SimpleStringm
000000000000820c t _ZN10TestOutput52printErrorInFileOnLineFormattedForWorkingEnvironmentE12SimpleStringm.cold
00000000000166e0 T _ZN10TestOutput5colorEv
0000000000016df0 T _ZN10TestOutput5printEl
00000000000081c4 t _ZN10TestOutput5printEl.cold
0000000000016fa0 T _ZN10TestOutput5printEm
00000000000081e8 t _ZN10TestOutput5printEm.cold
00000000000166f0 T _ZN10TestOutput5printEPKc
00000000000166d0 T _ZN10TestOutput7verboseENS_14VerbosityLevelE
00000000000174e0 T _ZN10TestOutputC1Ev
00000000000174e0 T _ZN10TestOutputC2Ev
0000000000017520 T _ZN10TestOutputD0Ev
0000000000017510 T _ZN10TestOutputD1Ev
0000000000017510 T _ZN10TestOutputD2Ev
0000000000018070 W _ZN10TestPlugin13preTestActionER10UtestShellR10TestResult
000000000000ca30 W _ZN10TestPlugin14parseArgumentsEiPKPKci
0000000000018080 W _ZN10TestPlugin14postTestActionER10UtestShellR10TestResult
0000000000017dc0 T _ZN10TestPlugin15getPluginByNameERK12SimpleString
0000000000017c10 T _ZN10TestPlugin17parseAllArgumentsEiPKPKci
0000000000017cf0 T _ZN10TestPlugin17parseAllArgumentsEiPPci
0000000000017b80 T _ZN10TestPlugin18removePluginByNameERK12SimpleString
0000000000017c80 T _ZN10TestPlugin19runAllPreTestActionER10UtestShellR10TestResult
0000000000017bc0 T _ZN10TestPlugin20runAllPostTestActionER10UtestShellR10TestResult
0000000000017aa0 T _ZN10TestPlugin6enableEv
0000000000017a90 T _ZN10TestPlugin7disableEv
0000000000017db0 T _ZN10TestPlugin7getNameEv
0000000000017a80 T _ZN10TestPlugin7getNextEv
0000000000017a70 T _ZN10TestPlugin9addPluginEPS_
0000000000017ab0 T _ZN10TestPlugin9isEnabledEv
0000000000017d80 T _ZN10TestPluginC1EPS_
0000000000017fe0 T _ZN10TestPluginC1ERK12SimpleString
0000000000017d80 T _ZN10TestPluginC2EPS_
0000000000017fe0 T _ZN10TestPluginC2ERK12SimpleString
0000000000017b50 T _ZN10TestPluginD0Ev
0000000000017b30 T _ZN10TestPluginD1Ev
0000000000017b30 T _ZN10TestPluginD2Ev
0000000000018ee0 T _ZN10TestResult10addFailureERK11TestFailure
0000000000018f20 T _ZN10TestResult10countCheckEv
0000000000018f70 T _ZN10TestResult10testsEndedEv
0000000000018f40 T _ZN10TestResult12countIgnoredEv
0000000000018f50 T _ZN10TestResult12testsStartedEv
0000000000018f30 T _ZN10TestResult16countFilteredOutEv
0000000000018eb0 T _ZN10TestResult16currentTestEndedEP10UtestShell
0000000000018e90 T _ZN10TestResult16printVeryVerboseEPKc
0000000000018e30 T _ZN10TestResult17currentGroupEndedEP10UtestShell
0000000000018e60 T _ZN10TestResult18currentTestStartedEP10UtestShell
0000000000018e10 T _ZN10TestResult19currentGroupStartedEP10UtestShell
0000000000019040 T _ZN10TestResult21setTotalExecutionTimeEm
0000000000018e80 T _ZN10TestResult5printEPKc
0000000000018f10 T _ZN10TestResult8countRunEv
0000000000018f00 T _ZN10TestResult9countTestEv
0000000000018fb0 T _ZN10TestResultC1ER10TestOutput
0000000000018fb0 T _ZN10TestResultC2ER10TestOutput
0000000000018fa0 T _ZN10TestResultD0Ev
0000000000018e00 T _ZN10TestResultD1Ev
0000000000018e00 T _ZN10TestResultD2Ev
000000000001a990 T _ZN10UtestShell10assertTrueEbPKcS1_S1_S1_mRK14TestTerminator
00000000000085b4 t _ZN10UtestShell10assertTrueEbPKcS1_S1_S1_mRK14TestTerminator.cold
000000000001c7a0 T _ZN10UtestShell10countCheckEv
00000000000195f0 T _ZN10UtestShell10countTestsEv
0000000000019300 T _ZN10UtestShell10createTestEv
000000000001c9e0 T _ZN10UtestShell10getCurrentEv
0000000000019490 T _ZN10UtestShell10runOneTestEP10TestPluginR10TestResult
00000000000190f0 T _ZN10UtestShell11destroyTestEP5Utest
000000000001c800 T _ZN10UtestShell11setFileNameEPKc
000000000001c830 T _ZN10UtestShell11setTestNameEPKc
0000000000034668 B _ZN10UtestShell11testResult_E
000000000001aed0 T _ZN10UtestShell12assertEqualsEbPKcS1_S1_S1_mRK14TestTerminator
0000000000008674 t _ZN10UtestShell12assertEqualsEbPKcS1_S1_S1_mRK14TestTerminator.cold
0000000000034660 B _ZN10UtestShell12currentTest_E
000000000001c820 T _ZN10UtestShell12setGroupNameEPKc
000000000001ad10 T _ZN10UtestShell13assertCompareEbPKcS1_S1_S1_mRK14TestTerminator
0000000000008632 t _ZN10UtestShell13assertCompareEbPKcS1_S1_S1_mRK14TestTerminator.cold
000000000001c990 T _ZN10UtestShell13getTestResultEv
000000000001c810 T _ZN10UtestShell13setLineNumberEm
0000000000019190 T _ZN10UtestShell13setRunIgnoredEv
000000000001c970 T _ZN10UtestShell13setTestResultEP10TestResult
000000000001c720 T _ZN10UtestShell14setCrashMethodEPFvvE
000000000001c980 T _ZN10UtestShell14setCurrentTestEPS_
000000000001a470 T _ZN10UtestShell15assertBitsEqualEmmmmPKcS1_mRK14TestTerminator
0000000000008526 t _ZN10UtestShell15assertBitsEqualEmmmmPKcS1_mRK14TestTerminator.cold
000000000001b090 T _ZN10UtestShell15assertCstrEqualEPKcS1_S1_S1_mRK14TestTerminator
00000000000086b6 t _ZN10UtestShell15assertCstrEqualEPKcS1_S1_S1_mRK14TestTerminator.cold
000000000001b2e0 T _ZN10UtestShell16assertCstrNEqualEPKcS1_mS1_S1_mRK14TestTerminator
0000000000008708 t _ZN10UtestShell16assertCstrNEqualEPKcS1_mS1_S1_mRK14TestTerminator.cold
0000000000019bb0 T _ZN10UtestShell16assertLongsEqualEllPKcS1_mRK14TestTerminator
0000000000008438 t _ZN10UtestShell16assertLongsEqualEllPKcS1_mRK14TestTerminator.cold
0000000000019870 T _ZN10UtestShell16printVeryVerboseEPKc
000000000001c730 T _ZN10UtestShell16resetCrashMethodEv
000000000001b530 T _ZN10UtestShell17assertBinaryEqualEPKvS1_mPKcS3_mRK14TestTerminator
000000000000875a t _ZN10UtestShell17assertBinaryEqualEPKvS1_mPKcS3_mRK14TestTerminator.cold
000000000001bf40 T _ZN10UtestShell18assertCstrContainsEPKcS1_S1_S1_m
00000000000088c0 t _ZN10UtestShell18assertCstrContainsEPKcS1_S1_S1_m.cold
000000000001a610 T _ZN10UtestShell18assertDoublesEqualEdddPKcS1_mRK14TestTerminator
0000000000008550 t _ZN10UtestShell18assertDoublesEqualEdddPKcS1_mRK14TestTerminator.cold
000000000001a7d0 T _ZN10UtestShell19assertPointersEqualEPKvS1_PKcS3_mRK14TestTerminator
0000000000008578 t _ZN10UtestShell19assertPointersEqualEPKvS1_PKcS3_mRK14TestTerminator.cold
0000000000019d30 T _ZN10UtestShell20assertLongLongsEqualExxPKcS1_mRK14TestTerminator
0000000000008462 t _ZN10UtestShell20assertLongLongsEqualExxPKcS1_mRK14TestTerminator.cold
000000000001b790 T _ZN10UtestShell21assertCstrNoCaseEqualEPKcS1_S1_S1_m
00000000000087ac t _ZN10UtestShell21assertCstrNoCaseEqualEPKcS1_S1_S1_m.cold
000000000001a1b0 T _ZN10UtestShell22assertSignedBytesEqualEaaPKcS1_mRK14TestTerminator
00000000000084e0 t _ZN10UtestShell22assertSignedBytesEqualEaaPKcS1_mRK14TestTerminator.cold
0000000000019160 T _ZN10UtestShell23setRunInSeperateProcessEv
000000000001bbe0 T _ZN10UtestShell24assertCstrNoCaseContainsEPKcS1_S1_S1_m
000000000000881a t _ZN10UtestShell24assertCstrNoCaseContainsEPKcS1_S1_S1_m.cold
0000000000019eb0 T _ZN10UtestShell24assertUnsignedLongsEqualEmmPKcS1_mRK14TestTerminator
000000000000848c t _ZN10UtestShell24assertUnsignedLongsEqualEmmPKcS1_mRK14TestTerminator.cold
000000000001ba10 T _ZN10UtestShell26runOneTestInCurrentProcessEP10TestPluginR10TestResult
000000000001ab50 T _ZN10UtestShell27assertFunctionPointersEqualEPFvvES1_PKcS3_mRK14TestTerminator
00000000000085f6 t _ZN10UtestShell27assertFunctionPointersEqualEPFvvES1_PKcS3_mRK14TestTerminator.cold
000000000001a030 T _ZN10UtestShell28assertUnsignedLongLongsEqualEyyPKcS1_mRK14TestTerminator
00000000000084b6 t _ZN10UtestShell28assertUnsignedLongLongsEqualEyyPKcS1_mRK14TestTerminator.cold
0000000000019a60 T _ZN10UtestShell4failEPKcS1_mRK14TestTerminator
0000000000008410 t _ZN10UtestShell4failEPKcS1_mRK14TestTerminator.cold
000000000001c750 T _ZN10UtestShell5crashEv
000000000001a330 T _ZN10UtestShell5printEPKcS1_m
000000000000850a t _ZN10UtestShell5printEPKcS1_m.cold
0000000000019440 T _ZN10UtestShell5printERK12SimpleStringPKcm
0000000000019120 T _ZN10UtestShell7addTestEPS_
0000000000019570 T _ZN10UtestShell8exitTestERK14TestTerminator
0000000000019990 T _ZN10UtestShell8failWithERK11TestFailure
00000000000198f0 T _ZN10UtestShell8failWithERK11TestFailureRK14TestTerminator
000000000001c6c0 T _ZN10UtestShellC1EPKcS1_S1_m
000000000001c6f0 T _ZN10UtestShellC1EPKcS1_S1_mPS_
000000000001c670 T _ZN10UtestShellC1Ev
000000000001c6c0 T _ZN10UtestShellC2EPKcS1_S1_m
000000000001c6f0 T _ZN10UtestShellC2EPKcS1_S1_mPS_
000000000001c670 T _ZN10UtestShellC2Ev
0000000000019280 T _ZN10UtestShellD0Ev
00000000000190e0 T _ZN10UtestShellD1Ev
00000000000190e0 T _ZN10UtestShellD2Ev
00000000000120d0 T _ZN11FailFailureC1EP10UtestShellPKcmRK12SimpleString
00000000000120d0 T _ZN11FailFailureC2EP10UtestShellPKcmRK12SimpleString
0000000000007c64 t _ZN11FailFailureC2EP10UtestShellPKcmRK12SimpleString.cold
000000000000ca80 W _ZN11FailFailureD0Ev
000000000000ca60 W _ZN11FailFailureD1Ev
000000000000ca60 W _ZN11FailFailureD2Ev
0000000000010660 T _ZN11SimpleMutex4LockEv
0000000000010670 T _ZN11SimpleMutex6UnlockEv
0000000000010620 T _ZN11SimpleMutexC1Ev
0000000000010620 T _ZN11SimpleMutexC2Ev
0000000000010640 T _ZN11SimpleMutexD1Ev
0000000000010640 T _ZN11SimpleMutexD2Ev
0000000000011780 T _ZN11TestFailure14createUserTextERK12SimpleString
0000000000007b1e t _ZN11TestFailure14createUserTextERK12SimpleString.cold
0000000000011360 T _ZN11TestFailure18createButWasStringERK12SimpleStringS2_
00000000000113e0 T _ZN11TestFailure27createDifferenceAtPosStringERK12SimpleStringmNS_16DifferenceFormatE
0000000000007aa0 t _ZN11TestFailure27createDifferenceAtPosStringERK12SimpleStringmNS_16DifferenceFormatE.cold
0000000000011160 T _ZN11TestFailureC1EP10UtestShellPKcm
0000000000010f70 T _ZN11TestFailureC1EP10UtestShellPKcmRK12SimpleString
0000000000011070 T _ZN11TestFailureC1EP10UtestShellRK12SimpleString
0000000000011260 T _ZN11TestFailureC1ERKS_
0000000000011160 T _ZN11TestFailureC2EP10UtestShellPKcm
0000000000007a44 t _ZN11TestFailureC2EP10UtestShellPKcm.cold
0000000000010f70 T _ZN11TestFailureC2EP10UtestShellPKcmRK12SimpleString
00000000000079e8 t _ZN11TestFailureC2EP10UtestShellPKcmRK12SimpleString.cold
0000000000011070 T _ZN11TestFailureC2EP10UtestShellRK12SimpleString
0000000000007a16 t _ZN11TestFailureC2EP10UtestShellRK12SimpleString.cold
0000000000011260 T _ZN11TestFailureC2ERKS_
0000000000007a72 t _ZN11TestFailureC2ERKS_.cold
0000000000010f10 T _ZN11TestFailureD0Ev
0000000000010ec0 T _ZN11TestFailureD1Ev
0000000000010ec0 T _ZN11TestFailureD2Ev
0000000000011ff0 T _ZN12CheckFailureC1EP10UtestShellPKcmRK12SimpleStringS6_S6_
0000000000011ff0 T _ZN12CheckFailureC2EP10UtestShellPKcmRK12SimpleStringS6_S6_
0000000000007c4a t _ZN12CheckFailureC2EP10UtestShellPKcmRK12SimpleStringS6_S6_.cold
0000000000013db0 W _ZN12CheckFailureD0Ev
0000000000013860 W _ZN12CheckFailureD1Ev
0000000000013860 W _ZN12CheckFailureD2Ev
000000000001ca30 T _ZN12ExecFunctionC1Ev
000000000001ca30 T _ZN12ExecFunctionC2Ev
000000000001ca50 T _ZN12ExecFunctionD0Ev
000000000001ca40 T _ZN12ExecFunctionD1Ev
000000000001ca40 T _ZN12ExecFunctionD2Ev
000000000000e7d0 T _ZN12SimpleString15copyToNewBufferEPKcm
0000000000034250 B _ZN12SimpleString16stringAllocator_E
000000000000d0d0 T _ZN12SimpleString17allocStringBufferEmPKcm
000000000000d0a0 T _ZN12SimpleString18getStringAllocatorEv
000000000000d0c0 T _ZN12SimpleString18setStringAllocatorEP19TestMemoryAllocator
000000000000d130 T _ZN12SimpleString19deallocStringBufferEPcmPKcm
000000000000d5a0 T _ZN12SimpleString19setInternalBufferToEPcm
000000000000e340 T _ZN12SimpleString22padStringsToSameLengthERS_S0_c
0000000000007720 t _ZN12SimpleString22padStringsToSameLengthERS_S0_c.cold
000000000000d3e0 T _ZN12SimpleString24deallocateInternalBufferEv
000000000000d540 T _ZN12SimpleString28setInternalBufferToNewBufferEm
000000000000d6c0 T _ZN12SimpleString29copyBufferToNewInternalBufferEPKc
000000000000d4b0 T _ZN12SimpleString29copyBufferToNewInternalBufferEPKcm
000000000000d610 T _ZN12SimpleString29copyBufferToNewInternalBufferERKS_
000000000000d460 T _ZN12SimpleString30setInternalBufferAsEmptyStringEv
000000000000d230 T _ZN12SimpleString4AtoIEPKc
000000000000d1e0 T _ZN12SimpleString4AtoUEPKc
000000000000d3a0 T _ZN12SimpleString6MemCmpEPKvS1_m
000000000000d2a0 T _ZN12SimpleString6StrCmpEPKcS1_
000000000000d2d0 T _ZN12SimpleString6StrLenEPKc
000000000000d360 T _ZN12SimpleString6StrStrEPKcS1_
000000000000cc30 t _ZN12SimpleString6StrStrEPKcS1_.part.0
000000000000e8d0 T _ZN12SimpleString7isDigitEc
000000000000e8e0 T _ZN12SimpleString7isSpaceEc
000000000000e900 T _ZN12SimpleString7isUpperEc
000000000000dab0 T _ZN12SimpleString7replaceEcc
000000000000db00 T _ZN12SimpleString7replaceEPKcS1_
000000000000d2f0 T _ZN12SimpleString7StrNCmpEPKcS1_m
000000000000d330 T _ZN12SimpleString7StrNCpyEPcPKcm
000000000000d380 T _ZN12SimpleString7ToLowerEc
000000000000d900 T _ZN12SimpleStringaSERKS_
000000000000d780 T _ZN12SimpleStringC1EPKc
000000000000d7f0 T _ZN12SimpleStringC1EPKcm
000000000000d8e0 T _ZN12SimpleStringC1ERKS_
000000000000d780 T _ZN12SimpleStringC2EPKc
000000000000d7f0 T _ZN12SimpleStringC2EPKcm
000000000000d8e0 T _ZN12SimpleStringC2ERKS_
000000000000dfd0 T _ZN12SimpleStringD1Ev
000000000000dfd0 T _ZN12SimpleStringD2Ev
000000000000e180 T _ZN12SimpleStringpLEPKc
000000000000e330 T _ZN12SimpleStringpLERKS_
0000000000018160 T _ZN12TestRegistry10countTestsEv
0000000000018ab0 T _ZN12TestRegistry10endOfGroupEP10UtestShell
0000000000008382 t _ZN12TestRegistry10endOfGroupEP10UtestShell.cold
0000000000018ba0 T _ZN12TestRegistry11runAllTestsER10TestResult
00000000000182a0 T _ZN12TestRegistry12countPluginsEv
0000000000018210 T _ZN12TestRegistry12getFirstTestEv
0000000000018280 T _ZN12TestRegistry12resetPluginsEv
00000000000186c0 T _ZN12TestRegistry12reverseTestsEv
0000000000008324 t _ZN12TestRegistry12reverseTestsEv.cold
0000000000018760 T _ZN12TestRegistry12shuffleTestsEm
0000000000008336 t _ZN12TestRegistry12shuffleTestsEm.cold
00000000000181e0 T _ZN12TestRegistry13installPluginEP10TestPlugin
0000000000018da0 T _ZN12TestRegistry13setRunIgnoredEv
0000000000018dc0 T _ZN12TestRegistry13testShouldRunEP10UtestShellR10TestResult
0000000000018200 T _ZN12TestRegistry14getFirstPluginEv
00000000000181b0 T _ZN12TestRegistry14setNameFiltersEPK10TestFilter
00000000000184e0 T _ZN12TestRegistry15getPluginByNameERK12SimpleString
0000000000018220 T _ZN12TestRegistry15getTestWithNextEP10UtestShell
00000000000181c0 T _ZN12TestRegistry15setGroupFiltersEPK10TestFilter
0000000000018190 T _ZN12TestRegistry15unDoLastAddTestEv
0000000000034600 B _ZN12TestRegistry16currentRegistry_E
0000000000018560 T _ZN12TestRegistry16findTestWithNameERK12SimpleString
0000000000008300 t _ZN12TestRegistry16findTestWithNameERK12SimpleString.cold
0000000000018610 T _ZN12TestRegistry17findTestWithGroupERK12SimpleString
0000000000008312 t _ZN12TestRegistry17findTestWithGroupERK12SimpleString.cold
0000000000018cc0 T _ZN12TestRegistry18getCurrentRegistryEv
00000000000083a0 t _ZN12TestRegistry18getCurrentRegistryEv.cold
00000000000182f0 T _ZN12TestRegistry18listTestGroupNamesER10TestResult
00000000000082c0 t _ZN12TestRegistry18listTestGroupNamesER10TestResult.cold
00000000000184f0 T _ZN12TestRegistry18removePluginByNameERK12SimpleString
0000000000018180 T _ZN12TestRegistry18setCurrentRegistryEPS_
0000000000018db0 T _ZN12TestRegistry20getCurrentRepetitionEv
0000000000018810 T _ZN12TestRegistry25listTestGroupAndCaseNamesER10TestResult
0000000000008348 t _ZN12TestRegistry25listTestGroupAndCaseNamesER10TestResult.cold
00000000000181d0 T _ZN12TestRegistry28setRunTestsInSeperateProcessEv
0000000000018140 T _ZN12TestRegistry7addTestEP10UtestShell
0000000000018a60 T _ZN12TestRegistryC1Ev
0000000000018a60 T _ZN12TestRegistryC2Ev
00000000000182e0 T _ZN12TestRegistryD0Ev
0000000000018130 T _ZN12TestRegistryD1Ev
0000000000018130 T _ZN12TestRegistryD2Ev
00000000000119b0 T _ZN13EqualsFailureC1EP10UtestShellPKcmRK12SimpleStringS6_S6_
0000000000011860 T _ZN13EqualsFailureC1EP10UtestShellPKcmS3_S3_RK12SimpleString
00000000000119b0 T _ZN13EqualsFailureC2EP10UtestShellPKcmRK12SimpleStringS6_S6_
0000000000007b72 t _ZN13EqualsFailureC2EP10UtestShellPKcmRK12SimpleStringS6_S6_.cold
0000000000011860 T _ZN13EqualsFailureC2EP10UtestShellPKcmS3_S3_RK12SimpleString
0000000000007b3a t _ZN13EqualsFailureC2EP10UtestShellPKcmS3_S3_RK12SimpleString.cold
0000000000013bd0 W _ZN13EqualsFailureD0Ev
00000000000136d0 W _ZN13EqualsFailureD1Ev
00000000000136d0 W _ZN13EqualsFailureD2Ev
000000000001cf00 T _ZN13TestInstaller4unDoEv
000000000001cec0 T _ZN13TestInstallerC1ER10UtestShellPKcS3_S3_m
000000000001cec0 T _ZN13TestInstallerC2ER10UtestShellPKcS3_S3_m
00000000000192c0 T _ZN13TestInstallerD0Ev
0000000000019270 T _ZN13TestInstallerD1Ev
0000000000019270 T _ZN13TestInstallerD2Ev
0000000000017b20 T _ZN14NullTestPlugin19runAllPreTestActionER10UtestShellR10TestResult
0000000000017b20 T _ZN14NullTestPlugin20runAllPostTestActionER10UtestShellR10TestResult
0000000000017f10 T _ZN14NullTestPlugin8instanceEv
00000000000082ae t _ZN14NullTestPlugin8instanceEv.cold
0000000000017ed0 T _ZN14NullTestPluginC1Ev
0000000000017ed0 T _ZN14NullTestPluginC2Ev
00000000000180d0 W _ZN14NullTestPluginD0Ev
0000000000018090 W _ZN14NullTestPluginD1Ev
0000000000018090 W _ZN14NullTestPluginD2Ev
000000000001ca20 T _ZN14TestTerminatorD0Ev
000000000001ca10 T _ZN14TestTerminatorD1Ev
000000000001ca10 T _ZN14TestTerminatorD2Ev
0000000000011ef0 T _ZN15ContainsFailureC1EP10UtestShellPKcmRK12SimpleStringS6_S6_
0000000000011ef0 T _ZN15ContainsFailureC2EP10UtestShellPKcmRK12SimpleStringS6_S6_
0000000000007c24 t _ZN15ContainsFailureC2EP10UtestShellPKcmRK12SimpleStringS6_S6_.cold
0000000000013f90 W _ZN15ContainsFailureD0Ev
00000000000138b0 W _ZN15ContainsFailureD1Ev
00000000000138b0 W _ZN15ContainsFailureD2Ev
0000000000009c40 T _ZN15JUnitTestOutput11printBufferEPKc
0000000000009d80 T _ZN15JUnitTestOutput11writeToFileERK12SimpleString
0000000000009e70 T _ZN15JUnitTestOutput12printFailureERK11TestFailure
0000000000007236 t _ZN15JUnitTestOutput12printFailureERK11TestFailure.cold
000000000000a760 T _ZN15JUnitTestOutput12writeFailureEP23JUnitTestCaseResultNode
0000000000007360 t _ZN15JUnitTestOutput12writeFailureEP23JUnitTestCaseResultNode.cold
0000000000009dc0 T _ZN15JUnitTestOutput13encodeXmlTextERK12SimpleString
0000000000007224 t _ZN15JUnitTestOutput13encodeXmlTextERK12SimpleString.cold
000000000000a2c0 T _ZN15JUnitTestOutput14createFileNameERK12SimpleString
00000000000072de t _ZN15JUnitTestOutput14createFileNameERK12SimpleString.cold
0000000000009cf0 T _ZN15JUnitTestOutput14encodeFileNameERK12SimpleString
0000000000007212 t _ZN15JUnitTestOutput14encodeFileNameERK12SimpleString.cold
000000000000b200 T _ZN15JUnitTestOutput14setPackageNameERK12SimpleString
000000000000abd0 T _ZN15JUnitTestOutput14writeTestCasesEv
0000000000007408 t _ZN15JUnitTestOutput14writeTestCasesEv.cold
000000000000a450 T _ZN15JUnitTestOutput14writeXmlHeaderEv
000000000000730e t _ZN15JUnitTestOutput14writeXmlHeaderEv.cold
0000000000009c40 T _ZN15JUnitTestOutput15printTestsEndedERK10TestResult
000000000000a960 T _ZN15JUnitTestOutput15writeFileEndingEv
00000000000073ae t _ZN15JUnitTestOutput15writeFileEndingEv.cold
000000000000a500 T _ZN15JUnitTestOutput15writePropertiesEv
0000000000007320 t _ZN15JUnitTestOutput15writePropertiesEv.cold
0000000000009d40 T _ZN15JUnitTestOutput16openFileForWriteERK12SimpleString
0000000000009c30 T _ZN15JUnitTestOutput17printTestsStartedEv
000000000000afe0 T _ZN15JUnitTestOutput20resetTestGroupResultEv
0000000000007472 t _ZN15JUnitTestOutput20resetTestGroupResultEv.cold
000000000000a170 T _ZN15JUnitTestOutput20writeTestGroupToFileEv
00000000000072cc t _ZN15JUnitTestOutput20writeTestGroupToFileEv.cold
0000000000009c90 T _ZN15JUnitTestOutput21printCurrentTestEndedERK10TestResult
000000000000a620 T _ZN15JUnitTestOutput21writeTestSuiteSummaryEv
0000000000007344 t _ZN15JUnitTestOutput21writeTestSuiteSummaryEv.cold
000000000000b140 T _ZN15JUnitTestOutput22printCurrentGroupEndedERK10TestResult
0000000000009ef0 T _ZN15JUnitTestOutput23printCurrentTestStartedERK10UtestShell
0000000000007250 t _ZN15JUnitTestOutput23printCurrentTestStartedERK10UtestShell.cold
0000000000009c40 T _ZN15JUnitTestOutput24printCurrentGroupStartedERK10UtestShell
0000000000009c30 T _ZN15JUnitTestOutput5flushEv
0000000000009c50 T _ZN15JUnitTestOutput5printEl
0000000000009c60 T _ZN15JUnitTestOutput5printEm
0000000000009cd0 T _ZN15JUnitTestOutput5printEPKc
0000000000009c70 T _ZN15JUnitTestOutput9closeFileEv
000000000000aee0 T _ZN15JUnitTestOutputC1Ev
000000000000aee0 T _ZN15JUnitTestOutputC2Ev
000000000000743a t _ZN15JUnitTestOutputC2Ev.cold
000000000000b180 T _ZN15JUnitTestOutputD0Ev
000000000000b0d0 T _ZN15JUnitTestOutputD1Ev
000000000000b0d0 T _ZN15JUnitTestOutputD2Ev
0000000000010680 T _ZN15ScopedMutexLockC1EP11SimpleMutex
0000000000010680 T _ZN15ScopedMutexLockC2EP11SimpleMutex
0000000000010690 T _ZN15ScopedMutexLockD1Ev
0000000000010690 T _ZN15ScopedMutexLockD2Ev
0000000000013480 T _ZN16BitsEqualFailureC1EP10UtestShellPKcmmmmmRK12SimpleString
0000000000013480 T _ZN16BitsEqualFailureC2EP10UtestShellPKcmmmmmRK12SimpleString
0000000000008072 t _ZN16BitsEqualFailureC2EP10UtestShellPKcmmmmmRK12SimpleString.cold
0000000000013d50 W _ZN16BitsEqualFailureD0Ev
0000000000013770 W _ZN16BitsEqualFailureD1Ev
0000000000013770 W _ZN16BitsEqualFailureD2Ev
0000000000019200 T _ZN16ExecFunctionTest5setupEv
0000000000019220 T _ZN16ExecFunctionTest8teardownEv
00000000000195a0 T _ZN16ExecFunctionTest8testBodyEv
000000000001ca80 T _ZN16ExecFunctionTestC1EP21ExecFunctionTestShell
000000000001ca80 T _ZN16ExecFunctionTestC2EP21ExecFunctionTestShell
000000000001cf40 W _ZN16ExecFunctionTestD0Ev
000000000001cf30 W _ZN16ExecFunctionTestD1Ev
000000000001cf30 W _ZN16ExecFunctionTestD2Ev
0000000000015560 T _ZN16MemoryAccountant12setAllocatorEP19TestMemoryAllocator
0000000000015750 T _ZN16MemoryAccountant13useCacheSizesEPmm
000000000000813a t _ZN16MemoryAccountant13useCacheSizesEPmm.cold
0000000000015640 T _ZN16MemoryAccountant20createCacheSizeNodesEPmm
00000000000158b0 T _ZN16MemoryAccountant22findOrCreateNodeOfSizeEm
0000000000014a70 t _ZN16MemoryAccountant22findOrCreateNodeOfSizeEm.part.0
00000000000158d0 T _ZN16MemoryAccountant5allocEm
0000000000015570 T _ZN16MemoryAccountant5clearEv
0000000000015920 T _ZN16MemoryAccountant7deallocEm
0000000000015450 T _ZN16MemoryAccountantC1Ev
0000000000015450 T _ZN16MemoryAccountantC2Ev
0000000000015510 T _ZN16MemoryAccountantD1Ev
0000000000015510 T _ZN16MemoryAccountantD2Ev
0000000000017ac0 T _ZN16SetPointerPlugin14postTestActionER10UtestShellR10TestResult
0000000000018020 T _ZN16SetPointerPluginC1ERK12SimpleString
0000000000018020 T _ZN16SetPointerPluginC2ERK12SimpleString
0000000000018100 W _ZN16SetPointerPluginD0Ev
00000000000180b0 W _ZN16SetPointerPluginD1Ev
00000000000180b0 W _ZN16SetPointerPluginD2Ev
0000000000011cb0 T _ZN17CheckEqualFailureC1EP10UtestShellPKcmRK12SimpleStringS6_S6_
0000000000011cb0 T _ZN17CheckEqualFailureC2EP10UtestShellPKcmRK12SimpleStringS6_S6_
0000000000007bda t _ZN17CheckEqualFailureC2EP10UtestShellPKcmRK12SimpleStringS6_S6_.cold
0000000000013e10 W _ZN17CheckEqualFailureD0Ev
00000000000137c0 W _ZN17CheckEqualFailureD1Ev
00000000000137c0 W _ZN17CheckEqualFailureD2Ev
0000000000011e10 T _ZN17ComparisonFailureC1EP10UtestShellPKcmRK12SimpleStringS6_S6_
0000000000011e10 T _ZN17ComparisonFailureC2EP10UtestShellPKcmRK12SimpleStringS6_S6_
0000000000007c0a t _ZN17ComparisonFailureC2EP10UtestShellPKcmRK12SimpleStringS6_S6_.cold
0000000000013ff0 W _ZN17ComparisonFailureD0Ev
0000000000013900 W _ZN17ComparisonFailureD1Ev
0000000000013900 W _ZN17ComparisonFailureD2Ev
0000000000017440 T _ZN17ConsoleTestOutput11printBufferEPKc
0000000000016730 T _ZN17ConsoleTestOutput5flushEv
00000000000179d0 W _ZN17ConsoleTestOutputD0Ev
00000000000179c0 W _ZN17ConsoleTestOutputD1Ev
00000000000179c0 W _ZN17ConsoleTestOutputD2Ev
0000000000019540 T _ZN17IgnoredUtestShell10runOneTestEP10TestPluginR10TestResult
0000000000019260 T _ZN17IgnoredUtestShell13setRunIgnoredEv
000000000001caf0 T _ZN17IgnoredUtestShellC1EPKcS1_S1_m
000000000001caa0 T _ZN17IgnoredUtestShellC1Ev
000000000001caf0 T _ZN17IgnoredUtestShellC2EPKcS1_S1_m
000000000001caa0 T _ZN17IgnoredUtestShellC2Ev
00000000000192b0 T _ZN17IgnoredUtestShellD0Ev
0000000000019240 T _ZN17IgnoredUtestShellD1Ev
0000000000019240 T _ZN17IgnoredUtestShellD2Ev
0000000000012120 T _ZN17LongsEqualFailureC1EP10UtestShellPKcmllRK12SimpleString
0000000000012120 T _ZN17LongsEqualFailureC2EP10UtestShellPKcmllRK12SimpleString
0000000000007c76 t _ZN17LongsEqualFailureC2EP10UtestShellPKcmllRK12SimpleString.cold
0000000000013c90 W _ZN17LongsEqualFailureD0Ev
0000000000013b80 W _ZN17LongsEqualFailureD1Ev
0000000000013b80 W _ZN17LongsEqualFailureD2Ev
0000000000013290 T _ZN18BinaryEqualFailureC1EP10UtestShellPKcmPKhS5_mRK12SimpleString
0000000000013290 T _ZN18BinaryEqualFailureC2EP10UtestShellPKcmPKhS5_mRK12SimpleString
0000000000008026 t _ZN18BinaryEqualFailureC2EP10UtestShellPKcmPKhS5_mRK12SimpleString.cold
0000000000013ed0 W _ZN18BinaryEqualFailureD0Ev
0000000000013950 W _ZN18BinaryEqualFailureD1Ev
0000000000013950 W _ZN18BinaryEqualFailureD2Ev
0000000000020c20 T _ZN18MemoryLeakDetector101removeMemoryLeakInformationWithoutCheckingOrDeallocatingTheMemoryButDeallocatingTheAccountInformationEP19TestMemoryAllocatorPvb
0000000000020c00 T _ZN18MemoryLeakDetector11allocMemoryEP19TestMemoryAllocatormb
0000000000020af0 T _ZN18MemoryLeakDetector11allocMemoryEP19TestMemoryAllocatormPKcmb
0000000000020440 T _ZN18MemoryLeakDetector12stopCheckingEv
0000000000020ce0 T _ZN18MemoryLeakDetector13deallocMemoryEP19TestMemoryAllocatorPvb
0000000000020cc0 T _ZN18MemoryLeakDetector13deallocMemoryEP19TestMemoryAllocatorPvPKcmb
0000000000020900 t _ZN18MemoryLeakDetector13deallocMemoryEP19TestMemoryAllocatorPvPKcmb.part.0
0000000000020de0 T _ZN18MemoryLeakDetector13reallocMemoryEP19TestMemoryAllocatorPcmPKcmb
0000000000020420 T _ZN18MemoryLeakDetector13startCheckingEv
00000000000206d0 T _ZN18MemoryLeakDetector16invalidateMemoryEPc
00000000000210c0 T _ZN18MemoryLeakDetector16totalMemoryLeaksE13MemLeakPeriod
00000000000207c0 T _ZN18MemoryLeakDetector18checkForCorruptionEP22MemoryLeakDetectorNodePKcmP19TestMemoryAllocatorb
00000000000203f0 T _ZN18MemoryLeakDetector18clearAllAccountingE13MemLeakPeriod
0000000000020790 T _ZN18MemoryLeakDetector18matchingAllocationEP19TestMemoryAllocatorS1_
0000000000020520 T _ZN18MemoryLeakDetector20storeLeakInformationEP22MemoryLeakDetectorNodePcmP19TestMemoryAllocatorPKcm
00000000000204c0 T _ZN18MemoryLeakDetector23decreaseAllocationStageEv
00000000000204b0 T _ZN18MemoryLeakDetector23increaseAllocationStageEv
0000000000020500 T _ZN18MemoryLeakDetector24getNodeFromMemoryPointerEPcm
0000000000020f30 T _ZN18MemoryLeakDetector25ConstructMemoryLeakReportE13MemLeakPeriod
00000000000204a0 T _ZN18MemoryLeakDetector26getCurrentAllocationNumberEv
0000000000020490 T _ZN18MemoryLeakDetector28enableAllocationTypeCheckingEv
0000000000020480 T _ZN18MemoryLeakDetector29disableAllocationTypeCheckingEv
0000000000020740 T _ZN18MemoryLeakDetector30addMemoryCorruptionInformationEPc
00000000000204e0 T _ZN18MemoryLeakDetector30sizeOfMemoryWithCorruptionInfoEm
0000000000020760 T _ZN18MemoryLeakDetector32validMemoryCorruptionInformationEPc
00000000000205b0 T _ZN18MemoryLeakDetector34reallocateMemoryAndLeakInformationEP19TestMemoryAllocatorPcmPKcmb
0000000000020ac0 T _ZN18MemoryLeakDetector37createMemoryLeakAccountingInformationEP19TestMemoryAllocatormPcb
0000000000020a50 T _ZN18MemoryLeakDetector39allocateMemoryWithAccountingInformationEP19TestMemoryAllocatormPKcmb
0000000000020d10 T _ZN18MemoryLeakDetector40deallocAllMemoryInCurrentAllocationStageEv
0000000000020a90 T _ZN18MemoryLeakDetector41reallocateMemoryWithAccountingInformationEP19TestMemoryAllocatorPcmPKcmb
0000000000020fe0 T _ZN18MemoryLeakDetector42markCheckingPeriodLeaksAsNonCheckingPeriodEv
0000000000020460 T _ZN18MemoryLeakDetector6enableEv
0000000000020fc0 T _ZN18MemoryLeakDetector6reportE13MemLeakPeriod
0000000000020470 T _ZN18MemoryLeakDetector7disableEv
00000000000204d0 T _ZN18MemoryLeakDetector8getMutexEv
0000000000020310 T _ZN18MemoryLeakDetectorC1EP17MemoryLeakFailure
0000000000020310 T _ZN18MemoryLeakDetectorC2EP17MemoryLeakFailure
0000000000008eaa t _ZN18MemoryLeakDetectorC2EP17MemoryLeakFailure.cold
000000000001f450 T _ZN18MemoryLeakDetectorD0Ev
000000000001f410 T _ZN18MemoryLeakDetectorD1Ev
000000000001f410 T _ZN18MemoryLeakDetectorD2Ev
000000000001f600 T _ZN18SimpleStringBuffer13addMemoryDumpEPKvm
000000000001f7e0 T _ZN18SimpleStringBuffer13setWriteLimitEm
000000000001f800 T _ZN18SimpleStringBuffer15resetWriteLimitEv
000000000001f810 T _ZN18SimpleStringBuffer18reachedItsCapacityEv
000000000001f4e0 T _ZN18SimpleStringBuffer3addEPKcz
000000000001f4c0 T _ZN18SimpleStringBuffer5clearEv
000000000001f7d0 T _ZN18SimpleStringBuffer8toStringEv
000000000001f4a0 T _ZN18SimpleStringBufferC1Ev
000000000001f4a0 T _ZN18SimpleStringBufferC2Ev
0000000000012ee0 T _ZN18StringEqualFailureC1EP10UtestShellPKcmS3_S3_RK12SimpleString
0000000000012ee0 T _ZN18StringEqualFailureC2EP10UtestShellPKcmS3_S3_RK12SimpleString
0000000000007f8c t _ZN18StringEqualFailureC2EP10UtestShellPKcmS3_S3_RK12SimpleString.cold
0000000000014110 W _ZN18StringEqualFailureD0Ev
00000000000139f0 W _ZN18StringEqualFailureD1Ev
00000000000139f0 W _ZN18StringEqualFailureD2Ev
0000000000010780 T _ZN18TeamCityTestOutput12printEscapedEPKc
0000000000010bf0 T _ZN18TeamCityTestOutput12printFailureERK11TestFailure
00000000000079d6 t _ZN18TeamCityTestOutput12printFailureERK11TestFailure.cold
0000000000010970 T _ZN18TeamCityTestOutput21printCurrentTestEndedERK10TestResult
00000000000079a0 t _ZN18TeamCityTestOutput21printCurrentTestEndedERK10TestResult.cold
0000000000010b10 T _ZN18TeamCityTestOutput22printCurrentGroupEndedERK10TestResult
00000000000079c4 t _ZN18TeamCityTestOutput22printCurrentGroupEndedERK10TestResult.cold
0000000000010870 T _ZN18TeamCityTestOutput23printCurrentTestStartedERK10UtestShell
000000000000797c t _ZN18TeamCityTestOutput23printCurrentTestStartedERK10UtestShell.cold
0000000000010a60 T _ZN18TeamCityTestOutput24printCurrentGroupStartedERK10UtestShell
00000000000079b2 t _ZN18TeamCityTestOutput24printCurrentGroupStartedERK10UtestShell.cold
0000000000010730 T _ZN18TeamCityTestOutputC1Ev
0000000000010730 T _ZN18TeamCityTestOutputC2Ev
000000000000795e t _ZN18TeamCityTestOutputC2Ev.cold
00000000000106f0 T _ZN18TeamCityTestOutputD0Ev
00000000000106b0 T _ZN18TeamCityTestOutputD1Ev
00000000000106b0 T _ZN18TeamCityTestOutputD2Ev
0000000000016a40 T _ZN19CompositeTestOutput11printBufferEPKc
0000000000016b80 T _ZN19CompositeTestOutput11printDoubleEd
0000000000016bd0 T _ZN19CompositeTestOutput12printFailureERK11TestFailure
0000000000016780 T _ZN19CompositeTestOutput12setOutputOneEP10TestOutput
00000000000167b0 T _ZN19CompositeTestOutput12setOutputTwoEP10TestOutput
0000000000016820 T _ZN19CompositeTestOutput15printTestsEndedERK10TestResult
00000000000167e0 T _ZN19CompositeTestOutput17printTestsStartedEv
0000000000016c20 T _ZN19CompositeTestOutput20setProgressIndicatorEPKc
00000000000168c0 T _ZN19CompositeTestOutput21printCurrentTestEndedERK10TestResult
0000000000016960 T _ZN19CompositeTestOutput22printCurrentGroupEndedERK10TestResult
0000000000016870 T _ZN19CompositeTestOutput23printCurrentTestStartedERK10UtestShell
0000000000016910 T _ZN19CompositeTestOutput24printCurrentGroupStartedERK10UtestShell
0000000000016a00 T _ZN19CompositeTestOutput5colorEv
0000000000016c70 T _ZN19CompositeTestOutput5flushEv
0000000000016ae0 T _ZN19CompositeTestOutput5printEl
0000000000016b30 T _ZN19CompositeTestOutput5printEm
0000000000016a90 T _ZN19CompositeTestOutput5printEPKc
00000000000169b0 T _ZN19CompositeTestOutput7verboseEN10TestOutput14VerbosityLevelE
0000000000017980 T _ZN19CompositeTestOutputC1Ev
0000000000017980 T _ZN19CompositeTestOutputC2Ev
0000000000016cb0 T _ZN19CompositeTestOutputD0Ev
0000000000016740 T _ZN19CompositeTestOutputD1Ev
0000000000016740 T _ZN19CompositeTestOutputD2Ev
0000000000011ab0 T _ZN19DoublesEqualFailureC1EP10UtestShellPKcmdddRK12SimpleString
0000000000011ab0 T _ZN19DoublesEqualFailureC2EP10UtestShellPKcmdddRK12SimpleString
0000000000007b98 t _ZN19DoublesEqualFailureC2EP10UtestShellPKcmdddRK12SimpleString.cold
0000000000013e70 W _ZN19DoublesEqualFailureD0Ev
0000000000013810 W _ZN19DoublesEqualFailureD1Ev
0000000000013810 W _ZN19DoublesEqualFailureD2Ev
0000000000014500 T _ZN19MemoryLeakAllocator11free_memoryEPcmPKcm
00000000000144b0 T _ZN19MemoryLeakAllocator12alloc_memoryEmPKcm
00000000000142b0 T _ZN19MemoryLeakAllocator15actualAllocatorEv
0000000000015230 T _ZN19MemoryLeakAllocatorC1EP19TestMemoryAllocator
0000000000015230 T _ZN19MemoryLeakAllocatorC2EP19TestMemoryAllocator
0000000000014380 T _ZN19MemoryLeakAllocatorD0Ev
0000000000014270 T _ZN19MemoryLeakAllocatorD1Ev
0000000000014270 T _ZN19MemoryLeakAllocatorD2Ev
0000000000014220 T _ZN19TestMemoryAllocator11free_memoryEPcmPKcm
00000000000149c0 T _ZN19TestMemoryAllocator12alloc_memoryEmPKcm
0000000000008128 t _ZN19TestMemoryAllocator12alloc_memoryEmPKcm.cold
00000000000143d0 T _ZN19TestMemoryAllocator13isOfEqualTypeEPS_
0000000000014260 T _ZN19TestMemoryAllocator15actualAllocatorEv
0000000000015220 T _ZN19TestMemoryAllocator16hasBeenDestroyedEv
0000000000014200 T _ZN19TestMemoryAllocator18freeMemoryLeakNodeEPc
00000000000141e0 T _ZN19TestMemoryAllocator19allocMemoryLeakNodeEm
0000000000015200 T _ZN19TestMemoryAllocatorC1EPKcS1_S1_
0000000000015200 T _ZN19TestMemoryAllocatorC2EPKcS1_S1_
0000000000014370 T _ZN19TestMemoryAllocatorD0Ev
00000000000141d0 T _ZN19TestMemoryAllocatorD1Ev
00000000000141d0 T _ZN19TestMemoryAllocatorD2Ev
000000000001da00 T _ZN20CommandLineArguments10setShuffleEiPKPKcRi
0000000000008a7e t _ZN20CommandLineArguments10setShuffleEiPKPKcRi.cold
000000000001e210 T _ZN20CommandLineArguments13addNameFilterEiPKPKcRi
0000000000008bc8 t _ZN20CommandLineArguments13addNameFilterEiPKPKcRi.cold
000000000001e8d0 T _ZN20CommandLineArguments13setOutputTypeEiPKPKcRi
0000000000008d1a t _ZN20CommandLineArguments13setOutputTypeEiPKPKcRi.cold
000000000001dbf0 T _ZN20CommandLineArguments14addGroupFilterEiPKPKcRi
0000000000008aa2 t _ZN20CommandLineArguments14addGroupFilterEiPKPKcRi.cold
000000000001e800 T _ZN20CommandLineArguments14setPackageNameEiPKPKcRi
0000000000008cf6 t _ZN20CommandLineArguments14setPackageNameEiPKPKcRi.cold
000000000001d910 T _ZN20CommandLineArguments14setRepeatCountEiPKPKcRi
0000000000008a6c t _ZN20CommandLineArguments14setRepeatCountEiPKPKcRi.cold
000000000001db00 T _ZN20CommandLineArguments17getParameterFieldEiPKPKcRiRK12SimpleString
0000000000008a90 t _ZN20CommandLineArguments17getParameterFieldEiPKPKcRiRK12SimpleString.cold
000000000001e310 T _ZN20CommandLineArguments19addStrictNameFilterEiPKPKcRi
0000000000008bf8 t _ZN20CommandLineArguments19addStrictNameFilterEiPKPKcRi.cold
000000000001e410 T _ZN20CommandLineArguments20addExcludeNameFilterEiPKPKcRi
0000000000008c28 t _ZN20CommandLineArguments20addExcludeNameFilterEiPKPKcRi.cold
000000000001df00 T _ZN20CommandLineArguments20addStrictGroupFilterEiPKPKcRi
0000000000008b38 t _ZN20CommandLineArguments20addStrictGroupFilterEiPKPKcRi.cold
000000000001e000 T _ZN20CommandLineArguments21addExcludeGroupFilterEiPKPKcRi
0000000000008b68 t _ZN20CommandLineArguments21addExcludeGroupFilterEiPKPKcRi.cold
000000000001dcf0 T _ZN20CommandLineArguments21addGroupDotNameFilterEiPKPKcRi
0000000000008ad2 t _ZN20CommandLineArguments21addGroupDotNameFilterEiPKPKcRi.cold
000000000001e510 T _ZN20CommandLineArguments26addExcludeStrictNameFilterEiPKPKcRi
0000000000008c58 t _ZN20CommandLineArguments26addExcludeStrictNameFilterEiPKPKcRi.cold
000000000001e100 T _ZN20CommandLineArguments27addExcludeStrictGroupFilterEiPKPKcRi
0000000000008b98 t _ZN20CommandLineArguments27addExcludeStrictGroupFilterEiPKPKcRi.cold
000000000001e620 T _ZN20CommandLineArguments32addTestToRunBasedOnVerboseOutputEiPKPKcRiS1_
0000000000008c88 t _ZN20CommandLineArguments32addTestToRunBasedOnVerboseOutputEiPKPKcRiS1_.cold
000000000001eae0 T _ZN20CommandLineArguments5parseEP10TestPlugin
0000000000008d5c t _ZN20CommandLineArguments5parseEP10TestPlugin.cold
000000000001d7b0 T _ZN20CommandLineArgumentsC1EiPKPKc
000000000001d7b0 T _ZN20CommandLineArgumentsC2EiPKPKc
000000000001d790 T _ZN20CommandLineArgumentsD0Ev
000000000001d6f0 T _ZN20CommandLineArgumentsD1Ev
000000000001d6f0 T _ZN20CommandLineArgumentsD2Ev
00000000000192d0 T _ZN20NormalTestTerminatorD0Ev
00000000000191a0 T _ZN20NormalTestTerminatorD1Ev
00000000000191a0 T _ZN20NormalTestTerminatorD2Ev
0000000000014300 T _ZN20NullUnknownAllocator11free_memoryEPcmPKcm
00000000000142f0 T _ZN20NullUnknownAllocator12alloc_memoryEmPKcm
00000000000152e0 T _ZN20NullUnknownAllocator16defaultAllocatorEv
00000000000152b0 T _ZN20NullUnknownAllocatorC1Ev
00000000000152b0 T _ZN20NullUnknownAllocatorC2Ev
00000000000143a0 T _ZN20NullUnknownAllocatorD0Ev
00000000000142e0 T _ZN20NullUnknownAllocatorD1Ev
00000000000142e0 T _ZN20NullUnknownAllocatorD2Ev
00000000000099a0 T _ZN21CommandLineTestRunner11RunAllTestsEiPKPKc
000000000000719c t _ZN21CommandLineTestRunner11RunAllTestsEiPKPKc.cold
0000000000009ba0 T _ZN21CommandLineTestRunner11RunAllTestsEiPPc
0000000000009620 T _ZN21CommandLineTestRunner11runAllTestsEv
000000000000712a t _ZN21CommandLineTestRunner11runAllTestsEv.cold
00000000000092f0 T _ZN21CommandLineTestRunner14parseArgumentsEP10TestPlugin
00000000000070a8 t _ZN21CommandLineTestRunner14parseArgumentsEP10TestPlugin.cold
0000000000009870 T _ZN21CommandLineTestRunner15runAllTestsMainEv
0000000000007160 t _ZN21CommandLineTestRunner15runAllTestsMainEv.cold
0000000000009130 T _ZN21CommandLineTestRunner17createJUnitOutputERK12SimpleString
0000000000007074 t _ZN21CommandLineTestRunner17createJUnitOutputERK12SimpleString.cold
0000000000009210 T _ZN21CommandLineTestRunner17initializeTestRunEv
0000000000009090 T _ZN21CommandLineTestRunner19createConsoleOutputEv
0000000000007040 t _ZN21CommandLineTestRunner19createConsoleOutputEv.cold
00000000000090e0 T _ZN21CommandLineTestRunner20createTeamCityOutputEv
000000000000705a t _ZN21CommandLineTestRunner20createTeamCityOutputEv.cold
0000000000009bb0 T _ZN21CommandLineTestRunner21createCompositeOutputEP10TestOutputS1_
00000000000071f8 t _ZN21CommandLineTestRunner21createCompositeOutputEP10TestOutputS1_.cold
0000000000009190 T _ZN21CommandLineTestRunnerC1EiPKPKcP12TestRegistry
0000000000009190 T _ZN21CommandLineTestRunnerC2EiPKPKcP12TestRegistry
000000000000708e t _ZN21CommandLineTestRunnerC2EiPKPKcP12TestRegistry.cold
0000000000009070 T _ZN21CommandLineTestRunnerD0Ev
0000000000009030 T _ZN21CommandLineTestRunnerD1Ev
0000000000009030 T _ZN21CommandLineTestRunnerD2Ev
000000000001cf50 W _ZN21ExecFunctionTestShell10createTestEv
0000000000019290 T _ZN21ExecFunctionTestShellD0Ev
0000000000019170 T _ZN21ExecFunctionTestShellD1Ev
0000000000019170 T _ZN21ExecFunctionTestShellD2Ev
00000000000126a0 T _ZN21LongLongsEqualFailureC1EP10UtestShellPKcmxxRK12SimpleString
00000000000126a0 T _ZN21LongLongsEqualFailureC2EP10UtestShellPKcmxxRK12SimpleString
0000000000007db2 t _ZN21LongLongsEqualFailureC2EP10UtestShellPKcmxxRK12SimpleString.cold
00000000000140b0 W _ZN21LongLongsEqualFailureD0Ev
0000000000013ae0 W _ZN21LongLongsEqualFailureD1Ev
0000000000013ae0 W _ZN21LongLongsEqualFailureD2Ev
0000000000016010 T _ZN22GlobalMemoryAccountant13useCacheSizesEPmm
00000000000166b0 T _ZN22GlobalMemoryAccountant15getNewAllocatorEv
00000000000166a0 T _ZN22GlobalMemoryAccountant18getMallocAllocatorEv
00000000000166c0 T _ZN22GlobalMemoryAccountant20getNewArrayAllocatorEv
0000000000016270 T _ZN22GlobalMemoryAccountant23restoreMemoryAllocatorsEv
0000000000016430 T _ZN22GlobalMemoryAccountant4stopEv
00000000000081b2 t _ZN22GlobalMemoryAccountant4stopEv.cold
0000000000016020 T _ZN22GlobalMemoryAccountant5startEv
00000000000081a0 t _ZN22GlobalMemoryAccountant5startEv.cold
0000000000016650 T _ZN22GlobalMemoryAccountant6reportEv
0000000000015fd0 T _ZN22GlobalMemoryAccountantC1Ev
0000000000015fd0 T _ZN22GlobalMemoryAccountantC2Ev
0000000000016330 T _ZN22GlobalMemoryAccountantD1Ev
0000000000016330 T _ZN22GlobalMemoryAccountantD2Ev
000000000001fdc0 T _ZN22MemoryLeakDetectorList10addNewNodeEP22MemoryLeakDetectorNode
000000000001fd20 T _ZN22MemoryLeakDetectorList10isInPeriodEP22MemoryLeakDetectorNode13MemLeakPeriod
000000000001fdd0 T _ZN22MemoryLeakDetectorList10removeNodeEPc
000000000001fe40 T _ZN22MemoryLeakDetectorList11getLeakFromEP22MemoryLeakDetectorNode13MemLeakPeriod
000000000001fef0 T _ZN22MemoryLeakDetectorList11getNextLeakEP22MemoryLeakDetectorNode13MemLeakPeriod
000000000001fea0 T _ZN22MemoryLeakDetectorList12getFirstLeakE13MemLeakPeriod
000000000001fe20 T _ZN22MemoryLeakDetectorList12retrieveNodeEPc
000000000001ff40 T _ZN22MemoryLeakDetectorList13getTotalLeaksE13MemLeakPeriod
000000000001fd60 T _ZN22MemoryLeakDetectorList18clearAllAccountingE13MemLeakPeriod
000000000001fd50 T _ZN22MemoryLeakDetectorList19isInAllocationStageEP22MemoryLeakDetectorNodeh
000000000001fe70 T _ZN22MemoryLeakDetectorList29getLeakForAllocationStageFromEP22MemoryLeakDetectorNodeh
000000000001ff20 T _ZN22MemoryLeakDetectorList29getNextLeakForAllocationStageEP22MemoryLeakDetectorNodeh
000000000001fed0 T _ZN22MemoryLeakDetectorList30getFirstLeakForAllocationStageEh
000000000001fcf0 T _ZN22MemoryLeakDetectorNode4initEPcjmP19TestMemoryAllocator13MemLeakPeriodhPKcm
000000000001cf20 W _ZN22OutsideTestRunnerUTest13getTestResultEv
0000000000019750 T _ZN22OutsideTestRunnerUTest8instanceEv
00000000000083ee t _ZN22OutsideTestRunnerUTest8instanceEv.cold
000000000001cfc0 W _ZN22OutsideTestRunnerUTestD0Ev
000000000001cf80 W _ZN22OutsideTestRunnerUTestD1Ev
000000000001cf80 W _ZN22OutsideTestRunnerUTestD2Ev
0000000000010150 T _ZN22SimpleStringCollection8allocateEm
00000000000078e2 t _ZN22SimpleStringCollection8allocateEm.cold
0000000000010110 T _ZN22SimpleStringCollectionC1Ev
0000000000010110 T _ZN22SimpleStringCollectionC2Ev
0000000000010260 T _ZN22SimpleStringCollectionD1Ev
0000000000010260 T _ZN22SimpleStringCollectionD2Ev
0000000000010330 T _ZN22SimpleStringCollectionixEm
0000000000007922 t _ZN22SimpleStringCollectionixEm.cold
00000000000179e0 W _ZN22StringBufferTestOutput11printBufferEPKc
00000000000179f0 W _ZN22StringBufferTestOutput5flushEv
0000000000016f70 T _ZN22StringBufferTestOutputD0Ev
0000000000016f50 T _ZN22StringBufferTestOutputD1Ev
0000000000016f50 T _ZN22StringBufferTestOutputD2Ev
000000000001cd10 T _ZN22UtestShellPointerArray18relinkTestsInOrderEv
000000000001ccf0 T _ZN22UtestShellPointerArray4swapEmm
000000000001ce20 T _ZN22UtestShellPointerArray7reverseEv
000000000001cd90 T _ZN22UtestShellPointerArray7shuffleEm
000000000001cb30 T _ZN22UtestShellPointerArrayC1EP10UtestShell
000000000001cb30 T _ZN22UtestShellPointerArrayC2EP10UtestShell
00000000000089f0 t _ZN22UtestShellPointerArrayC2EP10UtestShell.cold
000000000001ccd0 T _ZN22UtestShellPointerArrayD1Ev
000000000001ccd0 T _ZN22UtestShellPointerArrayD2Ev
0000000000014740 T _ZN23FailableMemoryAllocator12alloc_memoryEmPKcm
0000000000014940 T _ZN23FailableMemoryAllocator14failNthAllocAtEiPKcm
00000000000148d0 T _ZN23FailableMemoryAllocator15failAllocNumberEi
0000000000014850 T _ZN23FailableMemoryAllocator17clearFailedAllocsEv
0000000000014320 T _ZN23FailableMemoryAllocator19allocMemoryLeakNodeEm
00000000000145a0 T _ZN23FailableMemoryAllocator28checkAllFailedAllocsWereDoneEv
00000000000080e2 t _ZN23FailableMemoryAllocator28checkAllFailedAllocsWereDoneEv.cold
0000000000015390 T _ZN23FailableMemoryAllocatorC1EPKcS1_S1_
0000000000015390 T _ZN23FailableMemoryAllocatorC2EPKcS1_S1_
00000000000143b0 T _ZN23FailableMemoryAllocatorD0Ev
0000000000014310 T _ZN23FailableMemoryAllocatorD1Ev
0000000000014310 T _ZN23FailableMemoryAllocatorD2Ev
000000000001ffe0 T _ZN23MemoryLeakDetectorTable10addNewNodeEP22MemoryLeakDetectorNode
0000000000020020 T _ZN23MemoryLeakDetectorTable10removeNodeEPc
00000000000201e0 T _ZN23MemoryLeakDetectorTable11getNextLeakEP22MemoryLeakDetectorNode13MemLeakPeriod
0000000000020150 T _ZN23MemoryLeakDetectorTable12getFirstLeakE13MemLeakPeriod
00000000000200a0 T _ZN23MemoryLeakDetectorTable12retrieveNodeEPc
00000000000200f0 T _ZN23MemoryLeakDetectorTable13getTotalLeaksE13MemLeakPeriod
000000000001ffc0 T _ZN23MemoryLeakDetectorTable18clearAllAccountingE13MemLeakPeriod
0000000000020280 T _ZN23MemoryLeakDetectorTable29getNextLeakForAllocationStageEP22MemoryLeakDetectorNodeh
00000000000201a0 T _ZN23MemoryLeakDetectorTable30getFirstLeakForAllocationStageEh
000000000001ff90 T _ZN23MemoryLeakDetectorTable4hashEPc
000000000000b2d0 T _ZN23MemoryLeakWarningPlugin11FinalReportEm
0000000000034200 B _ZN23MemoryLeakWarningPlugin12firstPlugin_E
000000000000b2a0 T _ZN23MemoryLeakWarningPlugin13preTestActionER10UtestShellR10TestResult
000000000000c750 T _ZN23MemoryLeakWarningPlugin14getFirstPluginEv
000000000000c8b0 T _ZN23MemoryLeakWarningPlugin14postTestActionER10UtestShellR10TestResult
000000000000765c t _ZN23MemoryLeakWarningPlugin14postTestActionER10UtestShellR10TestResult.cold
000000000000c780 T _ZN23MemoryLeakWarningPlugin17expectLeaksInTestEm
000000000000b920 T _ZN23MemoryLeakWarningPlugin17getGlobalDetectorEv
00000000000074c8 t _ZN23MemoryLeakWarningPlugin17getGlobalDetectorEv.cold
000000000000c460 T _ZN23MemoryLeakWarningPlugin17setGlobalDetectorEP18MemoryLeakDetectorP17MemoryLeakFailure
000000000000c770 T _ZN23MemoryLeakWarningPlugin20ignoreAllLeaksInTestEv
000000000000c480 T _ZN23MemoryLeakWarningPlugin21destroyGlobalDetectorEv
000000000000c760 T _ZN23MemoryLeakWarningPlugin21getMemoryLeakDetectorEv
000000000000b6d0 T _ZN23MemoryLeakWarningPlugin22areNewDeleteOverloadedEv
000000000000c440 T _ZN23MemoryLeakWarningPlugin24getGlobalFailureReporterEv
000000000000b860 T _ZN23MemoryLeakWarningPlugin25restoreNewDeleteOverloadsEv
000000000000b4f0 T _ZN23MemoryLeakWarningPlugin25turnOffNewDeleteOverloadsEv
000000000000b700 T _ZN23MemoryLeakWarningPlugin32saveAndDisableNewDeleteOverloadsEv
000000000000b630 T _ZN23MemoryLeakWarningPlugin34turnOnThreadSafeNewDeleteOverloadsEv
000000000000b590 T _ZN23MemoryLeakWarningPlugin44turnOnDefaultNotThreadSafeNewDeleteOverloadsEv
000000000000c450 T _ZN23MemoryLeakWarningPlugin62destroyGlobalDetectorAndTurnOffMemoryLeakDetectionInDestructorEb
000000000000c790 T _ZN23MemoryLeakWarningPluginC1ERK12SimpleStringP18MemoryLeakDetector
000000000000c790 T _ZN23MemoryLeakWarningPluginC2ERK12SimpleStringP18MemoryLeakDetector
0000000000007638 t _ZN23MemoryLeakWarningPluginC2ERK12SimpleStringP18MemoryLeakDetector.cold
000000000000c670 T _ZN23MemoryLeakWarningPluginD0Ev
000000000000c590 T _ZN23MemoryLeakWarningPluginD1Ev
000000000000c590 T _ZN23MemoryLeakWarningPluginD2Ev
0000000000012c20 T _ZN23SignedBytesEqualFailureC1EP10UtestShellPKcmaaRK12SimpleString
0000000000012c20 T _ZN23SignedBytesEqualFailureC2EP10UtestShellPKcmaaRK12SimpleString
0000000000007eee t _ZN23SignedBytesEqualFailureC2EP10UtestShellPKcmaaRK12SimpleString.cold
0000000000014170 W _ZN23SignedBytesEqualFailureD0Ev
0000000000013a40 W _ZN23SignedBytesEqualFailureD1Ev
0000000000013a40 W _ZN23SignedBytesEqualFailureD2Ev
00000000000130b0 T _ZN24StringEqualNoCaseFailureC1EP10UtestShellPKcmS3_S3_RK12SimpleString
00000000000130b0 T _ZN24StringEqualNoCaseFailureC2EP10UtestShellPKcmS3_S3_RK12SimpleString
0000000000007fd8 t _ZN24StringEqualNoCaseFailureC2EP10UtestShellPKcmS3_S3_RK12SimpleString.cold
0000000000013f30 W _ZN24StringEqualNoCaseFailureD0Ev
00000000000139a0 W _ZN24StringEqualNoCaseFailureD1Ev
00000000000139a0 W _ZN24StringEqualNoCaseFailureD2Ev
00000000000135f0 T _ZN25FeatureUnsupportedFailureC1EP10UtestShellPKcmRK12SimpleStringS6_
00000000000135f0 T _ZN25FeatureUnsupportedFailureC2EP10UtestShellPKcmRK12SimpleStringS6_
00000000000080aa t _ZN25FeatureUnsupportedFailureC2EP10UtestShellPKcmRK12SimpleStringS6_.cold
0000000000013cf0 W _ZN25FeatureUnsupportedFailureD0Ev
0000000000013720 W _ZN25FeatureUnsupportedFailureD1Ev
0000000000013720 W _ZN25FeatureUnsupportedFailureD2Ev
000000000000cab0 W _ZN25MemoryLeakWarningReporter4failEPc
000000000000ca50 W _ZN25MemoryLeakWarningReporterD0Ev
000000000000ca40 W _ZN25MemoryLeakWarningReporterD1Ev
000000000000ca40 W _ZN25MemoryLeakWarningReporterD2Ev
00000000000123e0 T _ZN25UnsignedLongsEqualFailureC1EP10UtestShellPKcmmmRK12SimpleString
00000000000123e0 T _ZN25UnsignedLongsEqualFailureC2EP10UtestShellPKcmmmRK12SimpleString
0000000000007d14 t _ZN25UnsignedLongsEqualFailureC2EP10UtestShellPKcmmmRK12SimpleString.cold
0000000000013c30 W _ZN25UnsignedLongsEqualFailureD0Ev
0000000000013b30 W _ZN25UnsignedLongsEqualFailureD1Ev
0000000000013b30 W _ZN25UnsignedLongsEqualFailureD2Ev
0000000000014550 T _ZN26CrashOnAllocationAllocator12alloc_memoryEmPKcm
00000000000142d0 T _ZN26CrashOnAllocationAllocator18setNumberToCrashOnEj
0000000000015270 T _ZN26CrashOnAllocationAllocatorC1Ev
0000000000015270 T _ZN26CrashOnAllocationAllocatorC2Ev
0000000000014390 T _ZN26CrashOnAllocationAllocatorD0Ev
00000000000142c0 T _ZN26CrashOnAllocationAllocatorD1Ev
00000000000142c0 T _ZN26CrashOnAllocationAllocatorD2Ev
0000000000015130 T _ZN26GlobalMemoryAllocatorStash4saveEv
00000000000151c0 T _ZN26GlobalMemoryAllocatorStash7restoreEv
0000000000015110 T _ZN26GlobalMemoryAllocatorStashC1Ev
0000000000015110 T _ZN26GlobalMemoryAllocatorStashC2Ev
000000000001fb10 T _ZN28MemoryLeakOutputStringBuffer13reportFailureEPKcS1_mmP19TestMemoryAllocatorS1_mS3_P17MemoryLeakFailure
000000000001f930 T _ZN28MemoryLeakOutputStringBuffer16reportMemoryLeakEP22MemoryLeakDetectorNode
000000000001fad0 T _ZN28MemoryLeakOutputStringBuffer19addMemoryLeakFooterEm
000000000001fa90 T _ZN28MemoryLeakOutputStringBuffer19addMemoryLeakHeaderEv
000000000001f860 T _ZN28MemoryLeakOutputStringBuffer21addAllocationLocationEPKcmmP19TestMemoryAllocator
000000000001f8b0 T _ZN28MemoryLeakOutputStringBuffer23addDeallocationLocationEPKcmP19TestMemoryAllocator
000000000001f8f0 T _ZN28MemoryLeakOutputStringBuffer23addNoMemoryLeaksMessageEv
000000000001f9f0 T _ZN28MemoryLeakOutputStringBuffer23stopMemoryLeakReportingEv
000000000001faf0 T _ZN28MemoryLeakOutputStringBuffer24addWarningForUsingMallocEv
000000000001f910 T _ZN28MemoryLeakOutputStringBuffer24startMemoryLeakReportingEv
000000000001fc80 T _ZN28MemoryLeakOutputStringBuffer29reportMemoryCorruptionFailureEP22MemoryLeakDetectorNodePKcmP19TestMemoryAllocatorP17MemoryLeakFailure
000000000001fab0 T _ZN28MemoryLeakOutputStringBuffer30addErrorMessageForTooMuchLeaksEv
000000000001fbe0 T _ZN28MemoryLeakOutputStringBuffer41reportDeallocateNonAllocatedMemoryFailureEPKcmP19TestMemoryAllocatorP17MemoryLeakFailure
000000000001fc40 T _ZN28MemoryLeakOutputStringBuffer43reportAllocationDeallocationMismatchFailureEP22MemoryLeakDetectorNodePKcmP19TestMemoryAllocatorP17MemoryLeakFailure
000000000001fcd0 T _ZN28MemoryLeakOutputStringBuffer5clearEv
000000000001fcc0 T _ZN28MemoryLeakOutputStringBuffer8toStringEv
000000000001f830 T _ZN28MemoryLeakOutputStringBufferC1Ev
000000000001f830 T _ZN28MemoryLeakOutputStringBufferC2Ev
0000000000015f40 T _ZN29AccountingTestMemoryAllocator11free_memoryEPcmPKcm
0000000000015800 T _ZN29AccountingTestMemoryAllocator12alloc_memoryEmPKcm
0000000000014340 T _ZN29AccountingTestMemoryAllocator15actualAllocatorEv
0000000000015fc0 T _ZN29AccountingTestMemoryAllocator17originalAllocatorEv
0000000000015e60 T _ZN29AccountingTestMemoryAllocator23removeHeadAndReturnSizeEv
0000000000015e20 T _ZN29AccountingTestMemoryAllocator27removeNextNodeAndReturnSizeEP39AccountingTestMemoryAllocatorMemoryNode
0000000000015dd0 T _ZN29AccountingTestMemoryAllocator42addMemoryToMemoryTrackingToKeepTrackOfSizeEPcm
0000000000015ea0 T _ZN29AccountingTestMemoryAllocator46removeMemoryFromTrackingAndReturnAllocatedSizeEPc
0000000000015d80 T _ZN29AccountingTestMemoryAllocatorC1ER16MemoryAccountantP19TestMemoryAllocator
0000000000015d80 T _ZN29AccountingTestMemoryAllocatorC2ER16MemoryAccountantP19TestMemoryAllocator
00000000000143c0 T _ZN29AccountingTestMemoryAllocatorD0Ev
0000000000014330 T _ZN29AccountingTestMemoryAllocatorD1Ev
0000000000014330 T _ZN29AccountingTestMemoryAllocatorD2Ev
00000000000191e0 T _ZN29ExecFunctionWithoutParameters4execEv
000000000001ca60 T _ZN29ExecFunctionWithoutParametersC1EPFvvE
000000000001ca60 T _ZN29ExecFunctionWithoutParametersC2EPFvvE
00000000000192f0 T _ZN29ExecFunctionWithoutParametersD0Ev
00000000000191d0 T _ZN29ExecFunctionWithoutParametersD1Ev
00000000000191d0 T _ZN29ExecFunctionWithoutParametersD2Ev
0000000000012960 T _ZN29UnsignedLongLongsEqualFailureC1EP10UtestShellPKcmyyRK12SimpleString
0000000000012960 T _ZN29UnsignedLongLongsEqualFailureC2EP10UtestShellPKcmyyRK12SimpleString
0000000000007e50 t _ZN29UnsignedLongLongsEqualFailureC2EP10UtestShellPKcmyyRK12SimpleString.cold
0000000000014050 W _ZN29UnsignedLongLongsEqualFailureD0Ev
0000000000013a90 W _ZN29UnsignedLongLongsEqualFailureD1Ev
0000000000013a90 W _ZN29UnsignedLongLongsEqualFailureD2Ev
00000000000192e0 T _ZN31TestTerminatorWithoutExceptionsD0Ev
00000000000191c0 T _ZN31TestTerminatorWithoutExceptionsD1Ev
00000000000191c0 T _ZN31TestTerminatorWithoutExceptionsD2Ev
000000000000ccc0 T _ZN32GlobalSimpleStringAllocatorStash4saveEv
000000000000ccf0 T _ZN32GlobalSimpleStringAllocatorStash7restoreEv
000000000000ccb0 T _ZN32GlobalSimpleStringAllocatorStashC1Ev
000000000000ccb0 T _ZN32GlobalSimpleStringAllocatorStashC2Ev
000000000000d090 T _ZN34GlobalSimpleStringMemoryAccountant12getAllocatorEv
000000000000ce20 T _ZN34GlobalSimpleStringMemoryAccountant13useCacheSizesEPmm
000000000000cde0 T _ZN34GlobalSimpleStringMemoryAccountant16restoreAllocatorEv
000000000000cec0 T _ZN34GlobalSimpleStringMemoryAccountant4stopEv
00000000000076c6 t _ZN34GlobalSimpleStringMemoryAccountant4stopEv.cold
000000000000ce30 T _ZN34GlobalSimpleStringMemoryAccountant5startEv
00000000000076ac t _ZN34GlobalSimpleStringMemoryAccountant5startEv.cold
000000000000d040 T _ZN34GlobalSimpleStringMemoryAccountant6reportEv
000000000000cd00 T _ZN34GlobalSimpleStringMemoryAccountantC1Ev
000000000000cd00 T _ZN34GlobalSimpleStringMemoryAccountantC2Ev
0000000000007692 t _ZN34GlobalSimpleStringMemoryAccountantC2Ev.cold
000000000000cd60 T _ZN34GlobalSimpleStringMemoryAccountantD1Ev
000000000000cd60 T _ZN34GlobalSimpleStringMemoryAccountantD2Ev
000000000001c2a0 T _ZN5Utest3runEv
0000000000008966 t _ZN5Utest3runEv.cold
0000000000019190 T _ZN5Utest5setupEv
0000000000019190 T _ZN5Utest8teardownEv
0000000000019190 T _ZN5Utest8testBodyEv
000000000001ca00 T _ZN5UtestC1Ev
000000000001ca00 T _ZN5UtestC2Ev
00000000000192a0 T _ZN5UtestD0Ev
0000000000019180 T _ZN5UtestD1Ev
0000000000019180 T _ZN5UtestD2Ev
0000000000022009 r _ZN6__pstl9execution2v1L3parE
0000000000022008 r _ZN6__pstl9execution2v1L3seqE
000000000002200b r _ZN6__pstl9execution2v1L5unseqE
000000000002200a r _ZN6__pstl9execution2v1L9par_unseqE
0000000000022004 r _ZN9__gnu_cxxL21__default_lock_policyE
000000000000b460 T _Znam
000000000000b470 T _ZnamPKcm
000000000000b4d0 T _ZnamRKSt9nothrow_t
000000000000e140 T _ZneRK12SimpleStringS1_
0000000000021230 T _ZNK10TestFilter5matchERK12SimpleString
0000000000021200 T _ZNK10TestFilter7getNextEv
00000000000212d0 T _ZNK10TestFilter8asStringEv
0000000000008ef2 t _ZNK10TestFilter8asStringEv.cold
0000000000021260 T _ZNK10TestFiltereqERKS_
0000000000021290 T _ZNK10TestFilterneERKS_
0000000000019030 T _ZNK10TestResult21getTotalExecutionTimeEv
0000000000019050 T _ZNK10TestResult32getCurrentTestTotalExecutionTimeEv
0000000000019060 T _ZNK10TestResult33getCurrentGroupTotalExecutionTimeEv
0000000000019330 T _ZNK10UtestShell12getMacroNameEv
000000000001c860 T _ZNK10UtestShell13getLineNumberEv
0000000000019390 T _ZNK10UtestShell16getFormattedNameEv
00000000000083b2 t _ZNK10UtestShell16getFormattedNameEv.cold
0000000000019150 T _ZNK10UtestShell22isRunInSeperateProcessEv
000000000001c870 T _ZNK10UtestShell5matchEPKcPK10TestFilter
00000000000089de t _ZNK10UtestShell5matchEPKcPK10TestFilter.cold
000000000001c840 T _ZNK10UtestShell7getFileEv
000000000001c760 T _ZNK10UtestShell7getNameEv
0000000000019110 T _ZNK10UtestShell7getNextEv
0000000000019140 T _ZNK10UtestShell7willRunEv
000000000001c780 T _ZNK10UtestShell8getGroupEv
0000000000019130 T _ZNK10UtestShell9hasFailedEv
000000000001c920 T _ZNK10UtestShell9shouldRunEPK10TestFilterS2_
0000000000010ea0 T _ZNK11TestFailure10getMessageEv
0000000000010e20 T _ZNK11TestFailure11getFileNameEv
0000000000010e60 T _ZNK11TestFailure11getTestNameEv
0000000000010e40 T _ZNK11TestFailure15getTestFileNameEv
0000000000010e80 T _ZNK11TestFailure15getTestNameOnlyEv
0000000000010e10 T _ZNK11TestFailure17getTestLineNumberEv
0000000000011330 T _ZNK11TestFailure17isOutsideTestFileEv
0000000000011350 T _ZNK11TestFailure18isInHelperFunctionEv
0000000000010e00 T _ZNK11TestFailure20getFailureLineNumberEv
000000000000d940 T _ZNK12SimpleString10startsWithERKS_
000000000000df70 T _ZNK12SimpleString12asCharStringEv
000000000000e850 T _ZNK12SimpleString12copyToBufferEPcm
000000000000e080 T _ZNK12SimpleString12equalsNoCaseERKS_
00000000000076fc t _ZNK12SimpleString12equalsNoCaseERKS_.cold
000000000000ded0 T _ZNK12SimpleString14containsNoCaseERKS_
00000000000076ea t _ZNK12SimpleString14containsNoCaseERKS_.cold
000000000000d190 T _ZNK12SimpleString14getEmptyStringEv
000000000000e6b0 T _ZNK12SimpleString17subStringFromTillEcc
000000000000e600 T _ZNK12SimpleString2atEm
000000000000e610 T _ZNK12SimpleString4findEc
000000000000df80 T _ZNK12SimpleString4sizeEv
000000000000da50 T _ZNK12SimpleString5countERKS_
00000000000103d0 T _ZNK12SimpleString5splitERKS_R22SimpleStringCollection
0000000000007934 t _ZNK12SimpleString5splitERKS_R22SimpleStringCollection.cold
000000000000dfa0 T _ZNK12SimpleString7isEmptyEv
000000000000d920 T _ZNK12SimpleString8containsERKS_
000000000000d9a0 T _ZNK12SimpleString8endsWithERKS_
000000000000e660 T _ZNK12SimpleString8findFromEmc
000000000000d770 T _ZNK12SimpleString9getBufferEv
000000000000de50 T _ZNK12SimpleString9lowerCaseEv
000000000000e5b0 T _ZNK12SimpleString9subStringEm
000000000000e490 T _ZNK12SimpleString9subStringEmm
000000000000773a t _ZNK12SimpleString9subStringEmm.cold
000000000000e2a0 T _ZNK12SimpleStringplERKS_
000000000000770e t _ZNK12SimpleStringplERKS_.cold
0000000000015ae0 T _ZNK16MemoryAccountant10stringSizeEm
0000000000015a40 T _ZNK16MemoryAccountant11reportTitleEv
0000000000015ac0 T _ZNK16MemoryAccountant12reportFooterEv
0000000000015a80 T _ZNK16MemoryAccountant12reportHeaderEv
00000000000155d0 T _ZNK16MemoryAccountant14findNodeOfSizeEm
00000000000159c0 T _ZNK16MemoryAccountant16totalAllocationsEv
00000000000159f0 T _ZNK16MemoryAccountant18totalDeallocationsEv
0000000000015a20 T _ZNK16MemoryAccountant19reportNoAllocationsEv
0000000000015960 T _ZNK16MemoryAccountant22totalAllocationsOfSizeEm
0000000000015980 T _ZNK16MemoryAccountant24totalDeallocationsOfSizeEm
00000000000159a0 T _ZNK16MemoryAccountant30maximumAllocationAtATimeOfSizeEm
0000000000015420 T _ZNK16MemoryAccountant31destroyAccountantAllocationNodeEP30MemoryAccountantAllocationNode
00000000000153c0 T _ZNK16MemoryAccountant33createNewAccountantAllocationNodeEmP30MemoryAccountantAllocationNode
0000000000015b50 T _ZNK16MemoryAccountant6reportEv
000000000000814c t _ZNK16MemoryAccountant6reportEv.cold
0000000000019350 T _ZNK17IgnoredUtestShell12getMacroNameEv
0000000000019250 T _ZNK17IgnoredUtestShell7willRunEv
0000000000020450 T _ZNK18MemoryLeakDetector25getCurrentAllocationStageEv
0000000000014290 T _ZNK19MemoryLeakAllocator10alloc_nameEv
0000000000014280 T _ZNK19MemoryLeakAllocator4nameEv
00000000000142a0 T _ZNK19MemoryLeakAllocator9free_nameEv
0000000000014240 T _ZNK19TestMemoryAllocator10alloc_nameEv
0000000000014230 T _ZNK19TestMemoryAllocator4nameEv
0000000000014250 T _ZNK19TestMemoryAllocator9free_nameEv
000000000001d8c0 T _ZNK20CommandLineArguments11isReversingEv
000000000001d8d0 T _ZNK20CommandLineArguments11isShufflingEv
000000000001d890 T _ZNK20CommandLineArguments12isRunIgnoredEv
000000000001f3e0 T _ZNK20CommandLineArguments13isJUnitOutputEv
000000000001d850 T _ZNK20CommandLineArguments13isVeryVerboseEv
000000000001d900 T _ZNK20CommandLineArguments14getNameFiltersEv
000000000001f400 T _ZNK20CommandLineArguments14getPackageNameEv
000000000001d8b0 T _ZNK20CommandLineArguments14getRepeatCountEv
000000000001d8e0 T _ZNK20CommandLineArguments14getShuffleSeedEv
000000000001d8f0 T _ZNK20CommandLineArguments15getGroupFiltersEv
000000000001f3d0 T _ZNK20CommandLineArguments15isEclipseOutputEv
000000000001f3f0 T _ZNK20CommandLineArguments16isTeamCityOutputEv
000000000001d870 T _ZNK20CommandLineArguments23isListingTestGroupNamesEv
000000000001d8a0 T _ZNK20CommandLineArguments25runTestsInSeperateProcessEv
000000000001d880 T _ZNK20CommandLineArguments30isListingTestGroupAndCaseNamesEv
000000000001d820 T _ZNK20CommandLineArguments4helpEv
000000000001d810 T _ZNK20CommandLineArguments5usageEv
000000000001d860 T _ZNK20CommandLineArguments7isColorEv
000000000001d830 T _ZNK20CommandLineArguments8needHelpEv
000000000001d840 T _ZNK20CommandLineArguments9isVerboseEv
00000000000083c4 T _ZNK20NormalTestTerminator15exitCurrentTestEv
0000000000010320 T _ZNK22SimpleStringCollection4sizeEv
000000000001ce80 T _ZNK22UtestShellPointerArray12getFirstTestEv
000000000001cea0 T _ZNK22UtestShellPointerArray3getEm
0000000000014350 T _ZNK29AccountingTestMemoryAllocator10alloc_nameEv
0000000000014360 T _ZNK29AccountingTestMemoryAllocator9free_nameEv
00000000000191b0 T _ZNK31TestTerminatorWithoutExceptions15exitCurrentTestEv
                 U _ZNSt9bad_allocD1Ev@GLIBCXX_3.4
000000000000b410 T _Znwm
000000000000b420 T _ZnwmPKcm
000000000000b4b0 T _ZnwmRKSt9nothrow_t
0000000000033a00 V _ZTI10TestOutput
0000000000033b20 V _ZTI10TestPlugin
0000000000033b70 V _ZTI10TestResult
0000000000033bd0 V _ZTI10UtestShell
00000000000335c8 V _ZTI11FailFailure
00000000000337e8 V _ZTI11TestFailure
0000000000033870 V _ZTI12CheckFailure
0000000000033bf8 V _ZTI12ExecFunction
0000000000033b60 V _ZTI12TestRegistry
00000000000337f8 V _ZTI13EqualsFailure
0000000000033c50 V _ZTI13TestInstaller
0000000000033b48 V _ZTI14NullTestPlugin
0000000000033b90 V _ZTI14TestTerminator
0000000000033858 V _ZTI15ContainsFailure
0000000000033480 V _ZTI15JUnitTestOutput
0000000000033948 V _ZTI16BitsEqualFailure
0000000000033be0 V _ZTI16ExecFunctionTest
0000000000033b30 V _ZTI16SetPointerPlugin
0000000000033828 V _ZTI17CheckEqualFailure
0000000000033840 V _ZTI17ComparisonFailure
0000000000033a10 V _ZTI17ConsoleTestOutput
0000000000033c38 V _ZTI17IgnoredUtestShell
0000000000033888 V _ZTI17LongsEqualFailure
00000000000335f8 V _ZTI17MemoryLeakFailure
0000000000033930 V _ZTI18BinaryEqualFailure
0000000000033ce8 V _ZTI18MemoryLeakDetector
0000000000033900 V _ZTI18StringEqualFailure
0000000000033708 V _ZTI18TeamCityTestOutput
0000000000033a40 V _ZTI19CompositeTestOutput
0000000000033810 V _ZTI19DoublesEqualFailure
0000000000033988 V _ZTI19MemoryLeakAllocator
0000000000033978 V _ZTI19TestMemoryAllocator
0000000000033cd8 V _ZTI20CommandLineArguments
0000000000033ba0 V _ZTI20NormalTestTerminator
00000000000339b8 V _ZTI20NullUnknownAllocator
0000000000033470 V _ZTI21CommandLineTestRunner
0000000000033c20 V _ZTI21ExecFunctionTestShell
00000000000338b8 V _ZTI21LongLongsEqualFailure
0000000000033c60 V _ZTI22OutsideTestRunnerUTest
0000000000033a28 V _ZTI22StringBufferTestOutput
0000000000033c78 V _ZTI23CppUTestFailedException
00000000000339d0 V _ZTI23FailableMemoryAllocator
00000000000335e0 V _ZTI23MemoryLeakWarningPlugin
00000000000338e8 V _ZTI23SignedBytesEqualFailure
0000000000033918 V _ZTI24StringEqualNoCaseFailure
0000000000033960 V _ZTI25FeatureUnsupportedFailure
0000000000033608 V _ZTI25MemoryLeakWarningReporter
00000000000338a0 V _ZTI25UnsignedLongsEqualFailure
00000000000339a0 V _ZTI26CrashOnAllocationAllocator
00000000000339e8 V _ZTI29AccountingTestMemoryAllocator
0000000000033c08 V _ZTI29ExecFunctionWithoutParameters
00000000000338d0 V _ZTI29UnsignedLongLongsEqualFailure
0000000000033bb8 V _ZTI31TestTerminatorWithoutExceptions
0000000000033b80 V _ZTI5Utest
0000000000033458 V _ZTISt9bad_alloc@GLIBCXX_3.4
0000000000023078 V _ZTS10TestOutput
0000000000023138 V _ZTS10TestPlugin
0000000000023198 V _ZTS10TestResult
00000000000234e8 V _ZTS10UtestShell
0000000000022338 V _ZTS11FailFailure
0000000000022770 V _ZTS11TestFailure
0000000000022808 V _ZTS12CheckFailure
0000000000023518 V _ZTS12ExecFunction
0000000000023188 V _ZTS12TestRegistry
0000000000022780 V _ZTS13EqualsFailure
00000000000235a0 V _ZTS13TestInstaller
0000000000023170 V _ZTS14NullTestPlugin
0000000000023480 V _ZTS14TestTerminator
00000000000227f0 V _ZTS15ContainsFailure
00000000000222e0 V _ZTS15JUnitTestOutput
0000000000022920 V _ZTS16BitsEqualFailure
0000000000023500 V _ZTS16ExecFunctionTest
0000000000023150 V _ZTS16SetPointerPlugin
00000000000227b0 V _ZTS17CheckEqualFailure
00000000000227d0 V _ZTS17ComparisonFailure
0000000000023090 V _ZTS17ConsoleTestOutput
0000000000023580 V _ZTS17IgnoredUtestShell
0000000000022820 V _ZTS17LongsEqualFailure
0000000000022370 V _ZTS17MemoryLeakFailure
0000000000022900 V _ZTS18BinaryEqualFailure
0000000000024450 V _ZTS18MemoryLeakDetector
00000000000228c0 V _ZTS18StringEqualFailure
0000000000022600 V _ZTS18TeamCityTestOutput
00000000000230d0 V _ZTS19CompositeTestOutput
0000000000022790 V _ZTS19DoublesEqualFailure
0000000000022e70 V _ZTS19MemoryLeakAllocator
0000000000022e50 V _ZTS19TestMemoryAllocator
00000000000240e0 V _ZTS20CommandLineArguments
00000000000234a0 V _ZTS20NormalTestTerminator
0000000000022eb0 V _ZTS20NullUnknownAllocator
0000000000022090 V _ZTS21CommandLineTestRunner
0000000000023560 V _ZTS21ExecFunctionTestShell
0000000000022860 V _ZTS21LongLongsEqualFailure
00000000000235b0 V _ZTS22OutsideTestRunnerUTest
00000000000230b0 V _ZTS22StringBufferTestOutput
00000000000235d0 V _ZTS23CppUTestFailedException
0000000000022ed0 V _ZTS23FailableMemoryAllocator
0000000000022350 V _ZTS23MemoryLeakWarningPlugin
00000000000228a0 V _ZTS23SignedBytesEqualFailure
00000000000228e0 V _ZTS24StringEqualNoCaseFailure
0000000000022940 V _ZTS25FeatureUnsupportedFailure
0000000000022390 V _ZTS25MemoryLeakWarningReporter
0000000000022840 V _ZTS25UnsignedLongsEqualFailure
0000000000022e90 V _ZTS26CrashOnAllocationAllocator
0000000000022f00 V _ZTS29AccountingTestMemoryAllocator
0000000000023540 V _ZTS29ExecFunctionWithoutParameters
0000000000022880 V _ZTS29UnsignedLongLongsEqualFailure
00000000000234c0 V _ZTS31TestTerminatorWithoutExceptions
0000000000023479 V _ZTS5Utest
0000000000033a58 V _ZTV10TestOutput
0000000000032a70 V _ZTV10TestPlugin
0000000000032cd8 V _ZTV10TestResult
0000000000032ec8 V _ZTV10UtestShell
0000000000033620 V _ZTV11FailFailure
0000000000032518 V _ZTV11TestFailure
0000000000032150 V _ZTV12CheckFailure
0000000000033cb0 V _ZTV12ExecFunction
0000000000032c08 V _ZTV12TestRegistry
0000000000031f98 V _ZTV13EqualsFailure
00000000000333c8 V _ZTV13TestInstaller
0000000000032b80 V _ZTV14NullTestPlugin
0000000000033c88 V _ZTV14TestTerminator
00000000000320f8 V _ZTV15ContainsFailure
0000000000033498 V _ZTV15JUnitTestOutput
0000000000032468 V _ZTV16BitsEqualFailure
0000000000033230 V _ZTV16ExecFunctionTest
0000000000032af8 V _ZTV16SetPointerPlugin
0000000000032048 V _ZTV17CheckEqualFailure
00000000000320a0 V _ZTV17ComparisonFailure
0000000000032808 V _ZTV17ConsoleTestOutput
0000000000033270 V _ZTV17IgnoredUtestShell
00000000000321a8 V _ZTV17LongsEqualFailure
0000000000032410 V _ZTV18BinaryEqualFailure
0000000000033408 V _ZTV18MemoryLeakDetector
0000000000032360 V _ZTV18StringEqualFailure
0000000000033720 V _ZTV18TeamCityTestOutput
0000000000032998 V _ZTV19CompositeTestOutput
0000000000031ff0 V _ZTV19DoublesEqualFailure
00000000000325d8 V _ZTV19MemoryLeakAllocator
0000000000032570 V _ZTV19TestMemoryAllocator
00000000000333e8 V _ZTV20CommandLineArguments
00000000000331b8 V _ZTV20NormalTestTerminator
00000000000326b0 V _ZTV20NullUnknownAllocator
0000000000031f30 V _ZTV21CommandLineTestRunner
0000000000033020 V _ZTV21ExecFunctionTestShell
0000000000032258 V _ZTV21LongLongsEqualFailure
0000000000032d68 V _ZTV22OutsideTestRunnerUTest
00000000000328d0 V _ZTV22StringBufferTestOutput
0000000000032718 V _ZTV23FailableMemoryAllocator
0000000000033678 V _ZTV23MemoryLeakWarningPlugin
0000000000032308 V _ZTV23SignedBytesEqualFailure
00000000000323b8 V _ZTV24StringEqualNoCaseFailure
00000000000324c0 V _ZTV25FeatureUnsupportedFailure
0000000000031f70 V _ZTV25MemoryLeakWarningReporter
0000000000032200 V _ZTV25UnsignedLongsEqualFailure
0000000000032640 V _ZTV26CrashOnAllocationAllocator
00000000000327a0 V _ZTV29AccountingTestMemoryAllocator
0000000000033208 V _ZTV29ExecFunctionWithoutParameters
00000000000322b0 V _ZTV29UnsignedLongLongsEqualFailure
00000000000331e0 V _ZTV31TestTerminatorWithoutExceptions
0000000000033178 V _ZTV5Utest
                 U _ZTVN10__cxxabiv117__class_type_infoE@CXXABI_1.3
                 U _ZTVN10__cxxabiv120__si_class_type_infoE@CXXABI_1.3
0000000000033430 V _ZTVSt9bad_alloc@GLIBCXX_3.4
0000000000034340 b _ZZ19defaultNewAllocatorvE9allocator
00000000000342c0 b _ZZ22defaultMallocAllocatorvE9allocator
0000000000034300 b _ZZ24defaultNewArrayAllocatorvE9allocator
0000000000034760 b _ZZ24TimeStringImplementationE8dateTime
0000000000034220 b _ZZ26crash_on_allocation_numberjE14crashAllocator
0000000000034620 b _ZZN12TestRegistry18getCurrentRegistryEvE8registry
00000000000343a0 b _ZZN14NullTestPlugin8instanceEvE9_instance
0000000000034280 b _ZZN20NullUnknownAllocator16defaultAllocatorEvE9allocator
0000000000034680 b _ZZN22OutsideTestRunnerUTest8instanceEvE9instance_
